
bomb:     file format elf32-i386


Disassembly of section .init:

000008d0 <_init>:
 8d0:	53                   	push   %ebx
 8d1:	83 ec 08             	sub    $0x8,%esp
 8d4:	e8 77 02 00 00       	call   b50 <__x86.get_pc_thunk.bx>
 8d9:	81 c3 7f 46 00 00    	add    $0x467f,%ebx
 8df:	8b 83 94 00 00 00    	mov    0x94(%ebx),%eax
 8e5:	85 c0                	test   %eax,%eax
 8e7:	74 05                	je     8ee <_init+0x1e>
 8e9:	e8 1a 02 00 00       	call   b08 <__gmon_start__@plt>
 8ee:	83 c4 08             	add    $0x8,%esp
 8f1:	5b                   	pop    %ebx
 8f2:	c3                   	ret    

Disassembly of section .plt:

00000900 <.plt>:
 900:	ff b3 04 00 00 00    	pushl  0x4(%ebx)
 906:	ff a3 08 00 00 00    	jmp    *0x8(%ebx)
 90c:	00 00                	add    %al,(%eax)
	...

00000910 <strcmp@plt>:
 910:	ff a3 0c 00 00 00    	jmp    *0xc(%ebx)
 916:	68 00 00 00 00       	push   $0x0
 91b:	e9 e0 ff ff ff       	jmp    900 <.plt>

00000920 <read@plt>:
 920:	ff a3 10 00 00 00    	jmp    *0x10(%ebx)
 926:	68 08 00 00 00       	push   $0x8
 92b:	e9 d0 ff ff ff       	jmp    900 <.plt>

00000930 <printf@plt>:
 930:	ff a3 14 00 00 00    	jmp    *0x14(%ebx)
 936:	68 10 00 00 00       	push   $0x10
 93b:	e9 c0 ff ff ff       	jmp    900 <.plt>

00000940 <fflush@plt>:
 940:	ff a3 18 00 00 00    	jmp    *0x18(%ebx)
 946:	68 18 00 00 00       	push   $0x18
 94b:	e9 b0 ff ff ff       	jmp    900 <.plt>

00000950 <memcpy@plt>:
 950:	ff a3 1c 00 00 00    	jmp    *0x1c(%ebx)
 956:	68 20 00 00 00       	push   $0x20
 95b:	e9 a0 ff ff ff       	jmp    900 <.plt>

00000960 <bzero@plt>:
 960:	ff a3 20 00 00 00    	jmp    *0x20(%ebx)
 966:	68 28 00 00 00       	push   $0x28
 96b:	e9 90 ff ff ff       	jmp    900 <.plt>

00000970 <fgets@plt>:
 970:	ff a3 24 00 00 00    	jmp    *0x24(%ebx)
 976:	68 30 00 00 00       	push   $0x30
 97b:	e9 80 ff ff ff       	jmp    900 <.plt>

00000980 <signal@plt>:
 980:	ff a3 28 00 00 00    	jmp    *0x28(%ebx)
 986:	68 38 00 00 00       	push   $0x38
 98b:	e9 70 ff ff ff       	jmp    900 <.plt>

00000990 <sleep@plt>:
 990:	ff a3 2c 00 00 00    	jmp    *0x2c(%ebx)
 996:	68 40 00 00 00       	push   $0x40
 99b:	e9 60 ff ff ff       	jmp    900 <.plt>

000009a0 <alarm@plt>:
 9a0:	ff a3 30 00 00 00    	jmp    *0x30(%ebx)
 9a6:	68 48 00 00 00       	push   $0x48
 9ab:	e9 50 ff ff ff       	jmp    900 <.plt>

000009b0 <__stack_chk_fail@plt>:
 9b0:	ff a3 34 00 00 00    	jmp    *0x34(%ebx)
 9b6:	68 50 00 00 00       	push   $0x50
 9bb:	e9 40 ff ff ff       	jmp    900 <.plt>

000009c0 <htons@plt>:
 9c0:	ff a3 38 00 00 00    	jmp    *0x38(%ebx)
 9c6:	68 58 00 00 00       	push   $0x58
 9cb:	e9 30 ff ff ff       	jmp    900 <.plt>

000009d0 <bcopy@plt>:
 9d0:	ff a3 3c 00 00 00    	jmp    *0x3c(%ebx)
 9d6:	68 60 00 00 00       	push   $0x60
 9db:	e9 20 ff ff ff       	jmp    900 <.plt>

000009e0 <strcpy@plt>:
 9e0:	ff a3 40 00 00 00    	jmp    *0x40(%ebx)
 9e6:	68 68 00 00 00       	push   $0x68
 9eb:	e9 10 ff ff ff       	jmp    900 <.plt>

000009f0 <getenv@plt>:
 9f0:	ff a3 44 00 00 00    	jmp    *0x44(%ebx)
 9f6:	68 70 00 00 00       	push   $0x70
 9fb:	e9 00 ff ff ff       	jmp    900 <.plt>

00000a00 <puts@plt>:
 a00:	ff a3 48 00 00 00    	jmp    *0x48(%ebx)
 a06:	68 78 00 00 00       	push   $0x78
 a0b:	e9 f0 fe ff ff       	jmp    900 <.plt>

00000a10 <exit@plt>:
 a10:	ff a3 4c 00 00 00    	jmp    *0x4c(%ebx)
 a16:	68 80 00 00 00       	push   $0x80
 a1b:	e9 e0 fe ff ff       	jmp    900 <.plt>

00000a20 <strlen@plt>:
 a20:	ff a3 50 00 00 00    	jmp    *0x50(%ebx)
 a26:	68 88 00 00 00       	push   $0x88
 a2b:	e9 d0 fe ff ff       	jmp    900 <.plt>

00000a30 <__libc_start_main@plt>:
 a30:	ff a3 54 00 00 00    	jmp    *0x54(%ebx)
 a36:	68 90 00 00 00       	push   $0x90
 a3b:	e9 c0 fe ff ff       	jmp    900 <.plt>

00000a40 <fprintf@plt>:
 a40:	ff a3 58 00 00 00    	jmp    *0x58(%ebx)
 a46:	68 98 00 00 00       	push   $0x98
 a4b:	e9 b0 fe ff ff       	jmp    900 <.plt>

00000a50 <write@plt>:
 a50:	ff a3 5c 00 00 00    	jmp    *0x5c(%ebx)
 a56:	68 a0 00 00 00       	push   $0xa0
 a5b:	e9 a0 fe ff ff       	jmp    900 <.plt>

00000a60 <__isoc99_sscanf@plt>:
 a60:	ff a3 60 00 00 00    	jmp    *0x60(%ebx)
 a66:	68 a8 00 00 00       	push   $0xa8
 a6b:	e9 90 fe ff ff       	jmp    900 <.plt>

00000a70 <fopen@plt>:
 a70:	ff a3 64 00 00 00    	jmp    *0x64(%ebx)
 a76:	68 b0 00 00 00       	push   $0xb0
 a7b:	e9 80 fe ff ff       	jmp    900 <.plt>

00000a80 <__errno_location@plt>:
 a80:	ff a3 68 00 00 00    	jmp    *0x68(%ebx)
 a86:	68 b8 00 00 00       	push   $0xb8
 a8b:	e9 70 fe ff ff       	jmp    900 <.plt>

00000a90 <sprintf@plt>:
 a90:	ff a3 6c 00 00 00    	jmp    *0x6c(%ebx)
 a96:	68 c0 00 00 00       	push   $0xc0
 a9b:	e9 60 fe ff ff       	jmp    900 <.plt>

00000aa0 <atoi@plt>:
 aa0:	ff a3 70 00 00 00    	jmp    *0x70(%ebx)
 aa6:	68 c8 00 00 00       	push   $0xc8
 aab:	e9 50 fe ff ff       	jmp    900 <.plt>

00000ab0 <socket@plt>:
 ab0:	ff a3 74 00 00 00    	jmp    *0x74(%ebx)
 ab6:	68 d0 00 00 00       	push   $0xd0
 abb:	e9 40 fe ff ff       	jmp    900 <.plt>

00000ac0 <gethostbyname@plt>:
 ac0:	ff a3 78 00 00 00    	jmp    *0x78(%ebx)
 ac6:	68 d8 00 00 00       	push   $0xd8
 acb:	e9 30 fe ff ff       	jmp    900 <.plt>

00000ad0 <connect@plt>:
 ad0:	ff a3 7c 00 00 00    	jmp    *0x7c(%ebx)
 ad6:	68 e0 00 00 00       	push   $0xe0
 adb:	e9 20 fe ff ff       	jmp    900 <.plt>

00000ae0 <close@plt>:
 ae0:	ff a3 80 00 00 00    	jmp    *0x80(%ebx)
 ae6:	68 e8 00 00 00       	push   $0xe8
 aeb:	e9 10 fe ff ff       	jmp    900 <.plt>

00000af0 <__ctype_b_loc@plt>:
 af0:	ff a3 84 00 00 00    	jmp    *0x84(%ebx)
 af6:	68 f0 00 00 00       	push   $0xf0
 afb:	e9 00 fe ff ff       	jmp    900 <.plt>

Disassembly of section .plt.got:

00000b00 <__cxa_finalize@plt>:
 b00:	ff a3 90 00 00 00    	jmp    *0x90(%ebx)
 b06:	66 90                	xchg   %ax,%ax

00000b08 <__gmon_start__@plt>:
 b08:	ff a3 94 00 00 00    	jmp    *0x94(%ebx)
 b0e:	66 90                	xchg   %ax,%ax

Disassembly of section .text:

00000b10 <_start>:
     b10:	31 ed                	xor    %ebp,%ebp
     b12:	5e                   	pop    %esi
     b13:	89 e1                	mov    %esp,%ecx
     b15:	83 e4 f0             	and    $0xfffffff0,%esp
     b18:	50                   	push   %eax
     b19:	54                   	push   %esp
     b1a:	52                   	push   %edx
     b1b:	e8 22 00 00 00       	call   b42 <_start+0x32>
     b20:	81 c3 38 44 00 00    	add    $0x4438,%ebx
     b26:	8d 83 88 d9 ff ff    	lea    -0x2678(%ebx),%eax
     b2c:	50                   	push   %eax
     b2d:	8d 83 28 d9 ff ff    	lea    -0x26d8(%ebx),%eax
     b33:	50                   	push   %eax
     b34:	51                   	push   %ecx
     b35:	56                   	push   %esi
     b36:	ff b3 a0 00 00 00    	pushl  0xa0(%ebx)
     b3c:	e8 ef fe ff ff       	call   a30 <__libc_start_main@plt>
     b41:	f4                   	hlt    
     b42:	8b 1c 24             	mov    (%esp),%ebx
     b45:	c3                   	ret    
     b46:	66 90                	xchg   %ax,%ax
     b48:	66 90                	xchg   %ax,%ax
     b4a:	66 90                	xchg   %ax,%ax
     b4c:	66 90                	xchg   %ax,%ax
     b4e:	66 90                	xchg   %ax,%ax

00000b50 <__x86.get_pc_thunk.bx>:
     b50:	8b 1c 24             	mov    (%esp),%ebx
     b53:	c3                   	ret    
     b54:	66 90                	xchg   %ax,%ax
     b56:	66 90                	xchg   %ax,%ax
     b58:	66 90                	xchg   %ax,%ax
     b5a:	66 90                	xchg   %ax,%ax
     b5c:	66 90                	xchg   %ax,%ax
     b5e:	66 90                	xchg   %ax,%ax

00000b60 <deregister_tm_clones>:
     b60:	e8 e4 00 00 00       	call   c49 <__x86.get_pc_thunk.dx>
     b65:	81 c2 f3 43 00 00    	add    $0x43f3,%edx
     b6b:	8d 8a 28 04 00 00    	lea    0x428(%edx),%ecx
     b71:	8d 82 28 04 00 00    	lea    0x428(%edx),%eax
     b77:	39 c8                	cmp    %ecx,%eax
     b79:	74 1d                	je     b98 <deregister_tm_clones+0x38>
     b7b:	8b 82 88 00 00 00    	mov    0x88(%edx),%eax
     b81:	85 c0                	test   %eax,%eax
     b83:	74 13                	je     b98 <deregister_tm_clones+0x38>
     b85:	55                   	push   %ebp
     b86:	89 e5                	mov    %esp,%ebp
     b88:	83 ec 14             	sub    $0x14,%esp
     b8b:	51                   	push   %ecx
     b8c:	ff d0                	call   *%eax
     b8e:	83 c4 10             	add    $0x10,%esp
     b91:	c9                   	leave  
     b92:	c3                   	ret    
     b93:	90                   	nop
     b94:	8d 74 26 00          	lea    0x0(%esi,%eiz,1),%esi
     b98:	f3 c3                	repz ret 
     b9a:	8d b6 00 00 00 00    	lea    0x0(%esi),%esi

00000ba0 <register_tm_clones>:
     ba0:	e8 a4 00 00 00       	call   c49 <__x86.get_pc_thunk.dx>
     ba5:	81 c2 b3 43 00 00    	add    $0x43b3,%edx
     bab:	55                   	push   %ebp
     bac:	8d 8a 28 04 00 00    	lea    0x428(%edx),%ecx
     bb2:	8d 82 28 04 00 00    	lea    0x428(%edx),%eax
     bb8:	29 c8                	sub    %ecx,%eax
     bba:	89 e5                	mov    %esp,%ebp
     bbc:	53                   	push   %ebx
     bbd:	c1 f8 02             	sar    $0x2,%eax
     bc0:	89 c3                	mov    %eax,%ebx
     bc2:	83 ec 04             	sub    $0x4,%esp
     bc5:	c1 eb 1f             	shr    $0x1f,%ebx
     bc8:	01 d8                	add    %ebx,%eax
     bca:	d1 f8                	sar    %eax
     bcc:	74 14                	je     be2 <register_tm_clones+0x42>
     bce:	8b 92 a4 00 00 00    	mov    0xa4(%edx),%edx
     bd4:	85 d2                	test   %edx,%edx
     bd6:	74 0a                	je     be2 <register_tm_clones+0x42>
     bd8:	83 ec 08             	sub    $0x8,%esp
     bdb:	50                   	push   %eax
     bdc:	51                   	push   %ecx
     bdd:	ff d2                	call   *%edx
     bdf:	83 c4 10             	add    $0x10,%esp
     be2:	8b 5d fc             	mov    -0x4(%ebp),%ebx
     be5:	c9                   	leave  
     be6:	c3                   	ret    
     be7:	89 f6                	mov    %esi,%esi
     be9:	8d bc 27 00 00 00 00 	lea    0x0(%edi,%eiz,1),%edi

00000bf0 <__do_global_dtors_aux>:
     bf0:	55                   	push   %ebp
     bf1:	89 e5                	mov    %esp,%ebp
     bf3:	53                   	push   %ebx
     bf4:	e8 57 ff ff ff       	call   b50 <__x86.get_pc_thunk.bx>
     bf9:	81 c3 5f 43 00 00    	add    $0x435f,%ebx
     bff:	83 ec 04             	sub    $0x4,%esp
     c02:	80 bb 28 04 00 00 00 	cmpb   $0x0,0x428(%ebx)
     c09:	75 27                	jne    c32 <__do_global_dtors_aux+0x42>
     c0b:	8b 83 90 00 00 00    	mov    0x90(%ebx),%eax
     c11:	85 c0                	test   %eax,%eax
     c13:	74 11                	je     c26 <__do_global_dtors_aux+0x36>
     c15:	83 ec 0c             	sub    $0xc,%esp
     c18:	ff b3 ac 00 00 00    	pushl  0xac(%ebx)
     c1e:	e8 dd fe ff ff       	call   b00 <__cxa_finalize@plt>
     c23:	83 c4 10             	add    $0x10,%esp
     c26:	e8 35 ff ff ff       	call   b60 <deregister_tm_clones>
     c2b:	c6 83 28 04 00 00 01 	movb   $0x1,0x428(%ebx)
     c32:	8b 5d fc             	mov    -0x4(%ebp),%ebx
     c35:	c9                   	leave  
     c36:	c3                   	ret    
     c37:	89 f6                	mov    %esi,%esi
     c39:	8d bc 27 00 00 00 00 	lea    0x0(%edi,%eiz,1),%edi

00000c40 <frame_dummy>:
     c40:	55                   	push   %ebp
     c41:	89 e5                	mov    %esp,%ebp
     c43:	5d                   	pop    %ebp
     c44:	e9 57 ff ff ff       	jmp    ba0 <register_tm_clones>

00000c49 <__x86.get_pc_thunk.dx>:
     c49:	8b 14 24             	mov    (%esp),%edx
     c4c:	c3                   	ret    

00000c4d <main>:
     c4d:	8d 4c 24 04          	lea    0x4(%esp),%ecx
     c51:	83 e4 f0             	and    $0xfffffff0,%esp
     c54:	ff 71 fc             	pushl  -0x4(%ecx)
     c57:	55                   	push   %ebp
     c58:	89 e5                	mov    %esp,%ebp
     c5a:	56                   	push   %esi
     c5b:	53                   	push   %ebx
     c5c:	51                   	push   %ecx
     c5d:	83 ec 1c             	sub    $0x1c,%esp
     c60:	e8 eb fe ff ff       	call   b50 <__x86.get_pc_thunk.bx>
     c65:	81 c3 f3 42 00 00    	add    $0x42f3,%ebx
     c6b:	89 ce                	mov    %ecx,%esi
     c6d:	83 3e 01             	cmpl   $0x1,(%esi)
     c70:	75 15                	jne    c87 <main+0x3a>
     c72:	8b 83 98 00 00 00    	mov    0x98(%ebx),%eax
     c78:	8b 10                	mov    (%eax),%edx
     c7a:	8d 83 30 04 00 00    	lea    0x430(%ebx),%eax
     c80:	89 10                	mov    %edx,(%eax)
     c82:	e9 83 00 00 00       	jmp    d0a <main+0xbd>
     c87:	83 3e 02             	cmpl   $0x2,(%esi)
     c8a:	75 5c                	jne    ce8 <main+0x9b>
     c8c:	8b 46 04             	mov    0x4(%esi),%eax
     c8f:	83 c0 04             	add    $0x4,%eax
     c92:	8b 00                	mov    (%eax),%eax
     c94:	83 ec 08             	sub    $0x8,%esp
     c97:	8d 93 c8 d9 ff ff    	lea    -0x2638(%ebx),%edx
     c9d:	52                   	push   %edx
     c9e:	50                   	push   %eax
     c9f:	e8 cc fd ff ff       	call   a70 <fopen@plt>
     ca4:	83 c4 10             	add    $0x10,%esp
     ca7:	89 c2                	mov    %eax,%edx
     ca9:	8d 83 30 04 00 00    	lea    0x430(%ebx),%eax
     caf:	89 10                	mov    %edx,(%eax)
     cb1:	8d 83 30 04 00 00    	lea    0x430(%ebx),%eax
     cb7:	8b 00                	mov    (%eax),%eax
     cb9:	85 c0                	test   %eax,%eax
     cbb:	75 4d                	jne    d0a <main+0xbd>
     cbd:	8b 46 04             	mov    0x4(%esi),%eax
     cc0:	83 c0 04             	add    $0x4,%eax
     cc3:	8b 10                	mov    (%eax),%edx
     cc5:	8b 46 04             	mov    0x4(%esi),%eax
     cc8:	8b 00                	mov    (%eax),%eax
     cca:	83 ec 04             	sub    $0x4,%esp
     ccd:	52                   	push   %edx
     cce:	50                   	push   %eax
     ccf:	8d 83 ca d9 ff ff    	lea    -0x2636(%ebx),%eax
     cd5:	50                   	push   %eax
     cd6:	e8 55 fc ff ff       	call   930 <printf@plt>
     cdb:	83 c4 10             	add    $0x10,%esp
     cde:	83 ec 0c             	sub    $0xc,%esp
     ce1:	6a 08                	push   $0x8
     ce3:	e8 28 fd ff ff       	call   a10 <exit@plt>
     ce8:	8b 46 04             	mov    0x4(%esi),%eax
     ceb:	8b 00                	mov    (%eax),%eax
     ced:	83 ec 08             	sub    $0x8,%esp
     cf0:	50                   	push   %eax
     cf1:	8d 83 e7 d9 ff ff    	lea    -0x2619(%ebx),%eax
     cf7:	50                   	push   %eax
     cf8:	e8 33 fc ff ff       	call   930 <printf@plt>
     cfd:	83 c4 10             	add    $0x10,%esp
     d00:	83 ec 0c             	sub    $0xc,%esp
     d03:	6a 08                	push   $0x8
     d05:	e8 06 fd ff ff       	call   a10 <exit@plt>
     d0a:	e8 42 09 00 00       	call   1651 <initialize_bomb>
     d0f:	83 ec 0c             	sub    $0xc,%esp
     d12:	8d 83 04 da ff ff    	lea    -0x25fc(%ebx),%eax
     d18:	50                   	push   %eax
     d19:	e8 e2 fc ff ff       	call   a00 <puts@plt>
     d1e:	83 c4 10             	add    $0x10,%esp
     d21:	83 ec 0c             	sub    $0xc,%esp
     d24:	8d 83 40 da ff ff    	lea    -0x25c0(%ebx),%eax
     d2a:	50                   	push   %eax
     d2b:	e8 d0 fc ff ff       	call   a00 <puts@plt>
     d30:	83 c4 10             	add    $0x10,%esp
     d33:	e8 13 0a 00 00       	call   174b <read_line>
     d38:	89 45 e4             	mov    %eax,-0x1c(%ebp)
     d3b:	83 ec 0c             	sub    $0xc,%esp
     d3e:	ff 75 e4             	pushl  -0x1c(%ebp)
     d41:	e8 f9 00 00 00       	call   e3f <phase_1>
     d46:	83 c4 10             	add    $0x10,%esp
     d49:	e8 b7 0b 00 00       	call   1905 <phase_defused>
     d4e:	83 ec 0c             	sub    $0xc,%esp
     d51:	8d 83 6c da ff ff    	lea    -0x2594(%ebx),%eax
     d57:	50                   	push   %eax
     d58:	e8 a3 fc ff ff       	call   a00 <puts@plt>
     d5d:	83 c4 10             	add    $0x10,%esp
     d60:	e8 e6 09 00 00       	call   174b <read_line>
     d65:	89 45 e4             	mov    %eax,-0x1c(%ebp)
     d68:	83 ec 0c             	sub    $0xc,%esp
     d6b:	ff 75 e4             	pushl  -0x1c(%ebp)
     d6e:	e8 02 01 00 00       	call   e75 <phase_2>
     d73:	83 c4 10             	add    $0x10,%esp
     d76:	e8 8a 0b 00 00       	call   1905 <phase_defused>
     d7b:	83 ec 0c             	sub    $0xc,%esp
     d7e:	8d 83 95 da ff ff    	lea    -0x256b(%ebx),%eax
     d84:	50                   	push   %eax
     d85:	e8 76 fc ff ff       	call   a00 <puts@plt>
     d8a:	83 c4 10             	add    $0x10,%esp
     d8d:	e8 b9 09 00 00       	call   174b <read_line>
     d92:	89 45 e4             	mov    %eax,-0x1c(%ebp)
     d95:	83 ec 0c             	sub    $0xc,%esp
     d98:	ff 75 e4             	pushl  -0x1c(%ebp)
     d9b:	e8 6e 01 00 00       	call   f0e <phase_3>
     da0:	83 c4 10             	add    $0x10,%esp
     da3:	e8 5d 0b 00 00       	call   1905 <phase_defused>
     da8:	83 ec 0c             	sub    $0xc,%esp
     dab:	8d 83 b3 da ff ff    	lea    -0x254d(%ebx),%eax
     db1:	50                   	push   %eax
     db2:	e8 49 fc ff ff       	call   a00 <puts@plt>
     db7:	83 c4 10             	add    $0x10,%esp
     dba:	e8 8c 09 00 00       	call   174b <read_line>
     dbf:	89 45 e4             	mov    %eax,-0x1c(%ebp)
     dc2:	83 ec 0c             	sub    $0xc,%esp
     dc5:	ff 75 e4             	pushl  -0x1c(%ebp)
     dc8:	e8 29 03 00 00       	call   10f6 <phase_4>
     dcd:	83 c4 10             	add    $0x10,%esp
     dd0:	e8 30 0b 00 00       	call   1905 <phase_defused>
     dd5:	83 ec 0c             	sub    $0xc,%esp
     dd8:	8d 83 c4 da ff ff    	lea    -0x253c(%ebx),%eax
     dde:	50                   	push   %eax
     ddf:	e8 1c fc ff ff       	call   a00 <puts@plt>
     de4:	83 c4 10             	add    $0x10,%esp
     de7:	e8 5f 09 00 00       	call   174b <read_line>
     dec:	89 45 e4             	mov    %eax,-0x1c(%ebp)
     def:	83 ec 0c             	sub    $0xc,%esp
     df2:	ff 75 e4             	pushl  -0x1c(%ebp)
     df5:	e8 9f 03 00 00       	call   1199 <phase_5>
     dfa:	83 c4 10             	add    $0x10,%esp
     dfd:	e8 03 0b 00 00       	call   1905 <phase_defused>
     e02:	83 ec 0c             	sub    $0xc,%esp
     e05:	8d 83 e8 da ff ff    	lea    -0x2518(%ebx),%eax
     e0b:	50                   	push   %eax
     e0c:	e8 ef fb ff ff       	call   a00 <puts@plt>
     e11:	83 c4 10             	add    $0x10,%esp
     e14:	e8 32 09 00 00       	call   174b <read_line>
     e19:	89 45 e4             	mov    %eax,-0x1c(%ebp)
     e1c:	83 ec 0c             	sub    $0xc,%esp
     e1f:	ff 75 e4             	pushl  -0x1c(%ebp)
     e22:	e8 e6 03 00 00       	call   120d <phase_6>
     e27:	83 c4 10             	add    $0x10,%esp
     e2a:	e8 d6 0a 00 00       	call   1905 <phase_defused>
     e2f:	b8 00 00 00 00       	mov    $0x0,%eax
     e34:	8d 65 f4             	lea    -0xc(%ebp),%esp
     e37:	59                   	pop    %ecx
     e38:	5b                   	pop    %ebx
     e39:	5e                   	pop    %esi
     e3a:	5d                   	pop    %ebp
     e3b:	8d 61 fc             	lea    -0x4(%ecx),%esp
     e3e:	c3                   	ret    

00000e3f <phase_1>:
     e3f:	55                   	push   %ebp
     e40:	89 e5                	mov    %esp,%ebp
     e42:	53                   	push   %ebx
     e43:	83 ec 04             	sub    $0x4,%esp
     e46:	e8 05 fd ff ff       	call   b50 <__x86.get_pc_thunk.bx>
     e4b:	81 c3 0d 41 00 00    	add    $0x410d,%ebx
     e51:	83 ec 08             	sub    $0x8,%esp
     e54:	8d 83 08 db ff ff    	lea    -0x24f8(%ebx),%eax
     e5a:	50                   	push   %eax
     e5b:	ff 75 08             	pushl  0x8(%ebp)
     e5e:	e8 79 07 00 00       	call   15dc <strings_not_equal>
     e63:	83 c4 10             	add    $0x10,%esp
     e66:	85 c0                	test   %eax,%eax
     e68:	74 05                	je     e6f <phase_1+0x30>
     e6a:	e8 56 0a 00 00       	call   18c5 <explode_bomb>
     e6f:	90                   	nop
     e70:	8b 5d fc             	mov    -0x4(%ebp),%ebx
     e73:	c9                   	leave  
     e74:	c3                   	ret    

00000e75 <phase_2>:
     e75:	55                   	push   %ebp
     e76:	89 e5                	mov    %esp,%ebp
     e78:	53                   	push   %ebx
     e79:	83 ec 34             	sub    $0x34,%esp
     e7c:	e8 cf fc ff ff       	call   b50 <__x86.get_pc_thunk.bx>
     e81:	81 c3 d7 40 00 00    	add    $0x40d7,%ebx
     e87:	8b 45 08             	mov    0x8(%ebp),%eax
     e8a:	89 45 d4             	mov    %eax,-0x2c(%ebp)
     e8d:	65 a1 14 00 00 00    	mov    %gs:0x14,%eax
     e93:	89 45 f4             	mov    %eax,-0xc(%ebp)
     e96:	31 c0                	xor    %eax,%eax
     e98:	83 ec 08             	sub    $0x8,%esp
     e9b:	8d 45 dc             	lea    -0x24(%ebp),%eax
     e9e:	50                   	push   %eax
     e9f:	ff 75 d4             	pushl  -0x2c(%ebp)
     ea2:	e8 9b 06 00 00       	call   1542 <read_six_numbers>
     ea7:	83 c4 10             	add    $0x10,%esp
     eaa:	8b 45 dc             	mov    -0x24(%ebp),%eax
     ead:	85 c0                	test   %eax,%eax
     eaf:	75 08                	jne    eb9 <phase_2+0x44>
     eb1:	8b 45 e0             	mov    -0x20(%ebp),%eax
     eb4:	83 f8 01             	cmp    $0x1,%eax
     eb7:	74 05                	je     ebe <phase_2+0x49>
     eb9:	e8 07 0a 00 00       	call   18c5 <explode_bomb>
     ebe:	c7 45 d8 02 00 00 00 	movl   $0x2,-0x28(%ebp)
     ec5:	eb 2a                	jmp    ef1 <phase_2+0x7c>
     ec7:	8b 45 d8             	mov    -0x28(%ebp),%eax
     eca:	8b 44 85 dc          	mov    -0x24(%ebp,%eax,4),%eax
     ece:	8b 55 d8             	mov    -0x28(%ebp),%edx
     ed1:	83 ea 02             	sub    $0x2,%edx
     ed4:	8b 4c 95 dc          	mov    -0x24(%ebp,%edx,4),%ecx
     ed8:	8b 55 d8             	mov    -0x28(%ebp),%edx
     edb:	83 ea 01             	sub    $0x1,%edx
     ede:	8b 54 95 dc          	mov    -0x24(%ebp,%edx,4),%edx
     ee2:	01 ca                	add    %ecx,%edx
     ee4:	39 d0                	cmp    %edx,%eax
     ee6:	74 05                	je     eed <phase_2+0x78>
     ee8:	e8 d8 09 00 00       	call   18c5 <explode_bomb>
     eed:	83 45 d8 01          	addl   $0x1,-0x28(%ebp)
     ef1:	83 7d d8 05          	cmpl   $0x5,-0x28(%ebp)
     ef5:	7e d0                	jle    ec7 <phase_2+0x52>
     ef7:	90                   	nop
     ef8:	8b 45 f4             	mov    -0xc(%ebp),%eax
     efb:	65 33 05 14 00 00 00 	xor    %gs:0x14,%eax
     f02:	74 05                	je     f09 <phase_2+0x94>
     f04:	e8 e7 19 00 00       	call   28f0 <__stack_chk_fail_local>
     f09:	8b 5d fc             	mov    -0x4(%ebp),%ebx
     f0c:	c9                   	leave  
     f0d:	c3                   	ret    

00000f0e <phase_3>:
     f0e:	55                   	push   %ebp
     f0f:	89 e5                	mov    %esp,%ebp
     f11:	53                   	push   %ebx
     f12:	83 ec 34             	sub    $0x34,%esp
     f15:	e8 36 fc ff ff       	call   b50 <__x86.get_pc_thunk.bx>
     f1a:	81 c3 3e 40 00 00    	add    $0x403e,%ebx
     f20:	8b 45 08             	mov    0x8(%ebp),%eax
     f23:	89 45 d4             	mov    %eax,-0x2c(%ebp)
     f26:	65 a1 14 00 00 00    	mov    %gs:0x14,%eax
     f2c:	89 45 f4             	mov    %eax,-0xc(%ebp)
     f2f:	31 c0                	xor    %eax,%eax
     f31:	c7 45 f0 00 00 00 00 	movl   $0x0,-0x10(%ebp)
     f38:	83 ec 0c             	sub    $0xc,%esp
     f3b:	8d 45 ec             	lea    -0x14(%ebp),%eax
     f3e:	50                   	push   %eax
     f3f:	8d 45 e6             	lea    -0x1a(%ebp),%eax
     f42:	50                   	push   %eax
     f43:	8d 45 e8             	lea    -0x18(%ebp),%eax
     f46:	50                   	push   %eax
     f47:	8d 83 30 db ff ff    	lea    -0x24d0(%ebx),%eax
     f4d:	50                   	push   %eax
     f4e:	ff 75 d4             	pushl  -0x2c(%ebp)
     f51:	e8 0a fb ff ff       	call   a60 <__isoc99_sscanf@plt>
     f56:	83 c4 20             	add    $0x20,%esp
     f59:	89 45 f0             	mov    %eax,-0x10(%ebp)
     f5c:	83 7d f0 02          	cmpl   $0x2,-0x10(%ebp)
     f60:	7f 05                	jg     f67 <phase_3+0x59>
     f62:	e8 5e 09 00 00       	call   18c5 <explode_bomb>
     f67:	8b 45 e8             	mov    -0x18(%ebp),%eax
     f6a:	83 f8 07             	cmp    $0x7,%eax
     f6d:	0f 87 c2 00 00 00    	ja     1035 <.L22+0x15>
     f73:	c1 e0 02             	shl    $0x2,%eax
     f76:	8b 84 18 3c db ff ff 	mov    -0x24c4(%eax,%ebx,1),%eax
     f7d:	01 d8                	add    %ebx,%eax
     f7f:	ff e0                	jmp    *%eax

00000f81 <.L14>:
     f81:	c6 45 e7 79          	movb   $0x79,-0x19(%ebp)
     f85:	8b 45 ec             	mov    -0x14(%ebp),%eax
     f88:	3d 08 02 00 00       	cmp    $0x208,%eax
     f8d:	0f 84 ad 00 00 00    	je     1040 <.L22+0x20>
     f93:	e8 2d 09 00 00       	call   18c5 <explode_bomb>
     f98:	e9 a3 00 00 00       	jmp    1040 <.L22+0x20>

00000f9d <.L16>:
     f9d:	c6 45 e7 61          	movb   $0x61,-0x19(%ebp)
     fa1:	8b 45 ec             	mov    -0x14(%ebp),%eax
     fa4:	3d bc 00 00 00       	cmp    $0xbc,%eax
     fa9:	0f 84 94 00 00 00    	je     1043 <.L22+0x23>
     faf:	e8 11 09 00 00       	call   18c5 <explode_bomb>
     fb4:	e9 8a 00 00 00       	jmp    1043 <.L22+0x23>

00000fb9 <.L17>:
     fb9:	c6 45 e7 61          	movb   $0x61,-0x19(%ebp)
     fbd:	8b 45 ec             	mov    -0x14(%ebp),%eax
     fc0:	3d 8d 00 00 00       	cmp    $0x8d,%eax
     fc5:	74 7f                	je     1046 <.L22+0x26>
     fc7:	e8 f9 08 00 00       	call   18c5 <explode_bomb>
     fcc:	eb 78                	jmp    1046 <.L22+0x26>

00000fce <.L18>:
     fce:	c6 45 e7 68          	movb   $0x68,-0x19(%ebp)
     fd2:	8b 45 ec             	mov    -0x14(%ebp),%eax
     fd5:	83 f8 5b             	cmp    $0x5b,%eax
     fd8:	74 6f                	je     1049 <.L22+0x29>
     fda:	e8 e6 08 00 00       	call   18c5 <explode_bomb>
     fdf:	eb 68                	jmp    1049 <.L22+0x29>

00000fe1 <.L19>:
     fe1:	c6 45 e7 64          	movb   $0x64,-0x19(%ebp)
     fe5:	8b 45 ec             	mov    -0x14(%ebp),%eax
     fe8:	3d 01 02 00 00       	cmp    $0x201,%eax
     fed:	74 5d                	je     104c <.L22+0x2c>
     fef:	e8 d1 08 00 00       	call   18c5 <explode_bomb>
     ff4:	eb 56                	jmp    104c <.L22+0x2c>

00000ff6 <.L20>:
     ff6:	c6 45 e7 6e          	movb   $0x6e,-0x19(%ebp)
     ffa:	8b 45 ec             	mov    -0x14(%ebp),%eax
     ffd:	3d 01 02 00 00       	cmp    $0x201,%eax
    1002:	74 4b                	je     104f <.L22+0x2f>
    1004:	e8 bc 08 00 00       	call   18c5 <explode_bomb>
    1009:	eb 44                	jmp    104f <.L22+0x2f>

0000100b <.L21>:
    100b:	c6 45 e7 62          	movb   $0x62,-0x19(%ebp)
    100f:	8b 45 ec             	mov    -0x14(%ebp),%eax
    1012:	3d 15 01 00 00       	cmp    $0x115,%eax
    1017:	74 39                	je     1052 <.L22+0x32>
    1019:	e8 a7 08 00 00       	call   18c5 <explode_bomb>
    101e:	eb 32                	jmp    1052 <.L22+0x32>

00001020 <.L22>:
    1020:	c6 45 e7 69          	movb   $0x69,-0x19(%ebp)
    1024:	8b 45 ec             	mov    -0x14(%ebp),%eax
    1027:	3d 45 01 00 00       	cmp    $0x145,%eax
    102c:	74 27                	je     1055 <.L22+0x35>
    102e:	e8 92 08 00 00       	call   18c5 <explode_bomb>
    1033:	eb 20                	jmp    1055 <.L22+0x35>
    1035:	c6 45 e7 68          	movb   $0x68,-0x19(%ebp)
    1039:	e8 87 08 00 00       	call   18c5 <explode_bomb>
    103e:	eb 16                	jmp    1056 <.L22+0x36>
    1040:	90                   	nop
    1041:	eb 13                	jmp    1056 <.L22+0x36>
    1043:	90                   	nop
    1044:	eb 10                	jmp    1056 <.L22+0x36>
    1046:	90                   	nop
    1047:	eb 0d                	jmp    1056 <.L22+0x36>
    1049:	90                   	nop
    104a:	eb 0a                	jmp    1056 <.L22+0x36>
    104c:	90                   	nop
    104d:	eb 07                	jmp    1056 <.L22+0x36>
    104f:	90                   	nop
    1050:	eb 04                	jmp    1056 <.L22+0x36>
    1052:	90                   	nop
    1053:	eb 01                	jmp    1056 <.L22+0x36>
    1055:	90                   	nop
    1056:	0f b6 45 e6          	movzbl -0x1a(%ebp),%eax
    105a:	38 45 e7             	cmp    %al,-0x19(%ebp)
    105d:	74 05                	je     1064 <.L22+0x44>
    105f:	e8 61 08 00 00       	call   18c5 <explode_bomb>
    1064:	90                   	nop
    1065:	8b 45 f4             	mov    -0xc(%ebp),%eax
    1068:	65 33 05 14 00 00 00 	xor    %gs:0x14,%eax
    106f:	74 05                	je     1076 <.L22+0x56>
    1071:	e8 7a 18 00 00       	call   28f0 <__stack_chk_fail_local>
    1076:	8b 5d fc             	mov    -0x4(%ebp),%ebx
    1079:	c9                   	leave  
    107a:	c3                   	ret    

0000107b <func4>:
    107b:	55                   	push   %ebp
    107c:	89 e5                	mov    %esp,%ebp
    107e:	83 ec 18             	sub    $0x18,%esp
    1081:	e8 07 04 00 00       	call   148d <__x86.get_pc_thunk.ax>
    1086:	05 d2 3e 00 00       	add    $0x3ed2,%eax
    108b:	8b 45 10             	mov    0x10(%ebp),%eax
    108e:	2b 45 0c             	sub    0xc(%ebp),%eax
    1091:	89 c2                	mov    %eax,%edx
    1093:	c1 ea 1f             	shr    $0x1f,%edx
    1096:	01 d0                	add    %edx,%eax
    1098:	d1 f8                	sar    %eax
    109a:	89 c2                	mov    %eax,%edx
    109c:	8b 45 0c             	mov    0xc(%ebp),%eax
    109f:	01 d0                	add    %edx,%eax
    10a1:	89 45 f4             	mov    %eax,-0xc(%ebp)
    10a4:	8b 45 f4             	mov    -0xc(%ebp),%eax
    10a7:	3b 45 08             	cmp    0x8(%ebp),%eax
    10aa:	7e 1c                	jle    10c8 <func4+0x4d>
    10ac:	8b 45 f4             	mov    -0xc(%ebp),%eax
    10af:	83 e8 01             	sub    $0x1,%eax
    10b2:	83 ec 04             	sub    $0x4,%esp
    10b5:	50                   	push   %eax
    10b6:	ff 75 0c             	pushl  0xc(%ebp)
    10b9:	ff 75 08             	pushl  0x8(%ebp)
    10bc:	e8 ba ff ff ff       	call   107b <func4>
    10c1:	83 c4 10             	add    $0x10,%esp
    10c4:	01 c0                	add    %eax,%eax
    10c6:	eb 2c                	jmp    10f4 <func4+0x79>
    10c8:	8b 45 f4             	mov    -0xc(%ebp),%eax
    10cb:	3b 45 08             	cmp    0x8(%ebp),%eax
    10ce:	7d 1f                	jge    10ef <func4+0x74>
    10d0:	8b 45 f4             	mov    -0xc(%ebp),%eax
    10d3:	83 c0 01             	add    $0x1,%eax
    10d6:	83 ec 04             	sub    $0x4,%esp
    10d9:	ff 75 10             	pushl  0x10(%ebp)
    10dc:	50                   	push   %eax
    10dd:	ff 75 08             	pushl  0x8(%ebp)
    10e0:	e8 96 ff ff ff       	call   107b <func4>
    10e5:	83 c4 10             	add    $0x10,%esp
    10e8:	01 c0                	add    %eax,%eax
    10ea:	83 c0 01             	add    $0x1,%eax
    10ed:	eb 05                	jmp    10f4 <func4+0x79>
    10ef:	b8 00 00 00 00       	mov    $0x0,%eax
    10f4:	c9                   	leave  
    10f5:	c3                   	ret    

000010f6 <phase_4>:
    10f6:	55                   	push   %ebp
    10f7:	89 e5                	mov    %esp,%ebp
    10f9:	53                   	push   %ebx
    10fa:	83 ec 34             	sub    $0x34,%esp
    10fd:	e8 4e fa ff ff       	call   b50 <__x86.get_pc_thunk.bx>
    1102:	81 c3 56 3e 00 00    	add    $0x3e56,%ebx
    1108:	8b 45 08             	mov    0x8(%ebp),%eax
    110b:	89 45 d4             	mov    %eax,-0x2c(%ebp)
    110e:	65 a1 14 00 00 00    	mov    %gs:0x14,%eax
    1114:	89 45 f4             	mov    %eax,-0xc(%ebp)
    1117:	31 c0                	xor    %eax,%eax
    1119:	8d 45 e4             	lea    -0x1c(%ebp),%eax
    111c:	50                   	push   %eax
    111d:	8d 45 e0             	lea    -0x20(%ebp),%eax
    1120:	50                   	push   %eax
    1121:	8d 83 5c db ff ff    	lea    -0x24a4(%ebx),%eax
    1127:	50                   	push   %eax
    1128:	ff 75 d4             	pushl  -0x2c(%ebp)
    112b:	e8 30 f9 ff ff       	call   a60 <__isoc99_sscanf@plt>
    1130:	83 c4 10             	add    $0x10,%esp
    1133:	89 45 e8             	mov    %eax,-0x18(%ebp)
    1136:	83 7d e8 02          	cmpl   $0x2,-0x18(%ebp)
    113a:	75 0f                	jne    114b <phase_4+0x55>
    113c:	8b 45 e0             	mov    -0x20(%ebp),%eax
    113f:	85 c0                	test   %eax,%eax
    1141:	78 08                	js     114b <phase_4+0x55>
    1143:	8b 45 e0             	mov    -0x20(%ebp),%eax
    1146:	83 f8 0e             	cmp    $0xe,%eax
    1149:	7e 05                	jle    1150 <phase_4+0x5a>
    114b:	e8 75 07 00 00       	call   18c5 <explode_bomb>
    1150:	c7 45 ec 06 00 00 00 	movl   $0x6,-0x14(%ebp)
    1157:	8b 45 e0             	mov    -0x20(%ebp),%eax
    115a:	83 ec 04             	sub    $0x4,%esp
    115d:	6a 0e                	push   $0xe
    115f:	6a 00                	push   $0x0
    1161:	50                   	push   %eax
    1162:	e8 14 ff ff ff       	call   107b <func4>
    1167:	83 c4 10             	add    $0x10,%esp
    116a:	89 45 f0             	mov    %eax,-0x10(%ebp)
    116d:	8b 45 f0             	mov    -0x10(%ebp),%eax
    1170:	3b 45 ec             	cmp    -0x14(%ebp),%eax
    1173:	75 08                	jne    117d <phase_4+0x87>
    1175:	8b 45 e4             	mov    -0x1c(%ebp),%eax
    1178:	39 45 ec             	cmp    %eax,-0x14(%ebp)
    117b:	74 05                	je     1182 <phase_4+0x8c>
    117d:	e8 43 07 00 00       	call   18c5 <explode_bomb>
    1182:	90                   	nop
    1183:	8b 45 f4             	mov    -0xc(%ebp),%eax
    1186:	65 33 05 14 00 00 00 	xor    %gs:0x14,%eax
    118d:	74 05                	je     1194 <phase_4+0x9e>
    118f:	e8 5c 17 00 00       	call   28f0 <__stack_chk_fail_local>
    1194:	8b 5d fc             	mov    -0x4(%ebp),%ebx
    1197:	c9                   	leave  
    1198:	c3                   	ret    

00001199 <phase_5>:
    1199:	55                   	push   %ebp
    119a:	89 e5                	mov    %esp,%ebp
    119c:	53                   	push   %ebx
    119d:	83 ec 14             	sub    $0x14,%esp
    11a0:	e8 ab f9 ff ff       	call   b50 <__x86.get_pc_thunk.bx>
    11a5:	81 c3 b3 3d 00 00    	add    $0x3db3,%ebx
    11ab:	83 ec 0c             	sub    $0xc,%esp
    11ae:	ff 75 08             	pushl  0x8(%ebp)
    11b1:	e8 f0 03 00 00       	call   15a6 <string_length>
    11b6:	83 c4 10             	add    $0x10,%esp
    11b9:	89 45 f4             	mov    %eax,-0xc(%ebp)
    11bc:	83 7d f4 06          	cmpl   $0x6,-0xc(%ebp)
    11c0:	74 05                	je     11c7 <phase_5+0x2e>
    11c2:	e8 fe 06 00 00       	call   18c5 <explode_bomb>
    11c7:	c7 45 f0 00 00 00 00 	movl   $0x0,-0x10(%ebp)
    11ce:	c7 45 ec 00 00 00 00 	movl   $0x0,-0x14(%ebp)
    11d5:	eb 1f                	jmp    11f6 <phase_5+0x5d>
    11d7:	8b 55 ec             	mov    -0x14(%ebp),%edx
    11da:	8b 45 08             	mov    0x8(%ebp),%eax
    11dd:	01 d0                	add    %edx,%eax
    11df:	0f b6 00             	movzbl (%eax),%eax
    11e2:	0f be c0             	movsbl %al,%eax
    11e5:	83 e0 0f             	and    $0xf,%eax
    11e8:	8b 84 83 48 01 00 00 	mov    0x148(%ebx,%eax,4),%eax
    11ef:	01 45 f0             	add    %eax,-0x10(%ebp)
    11f2:	83 45 ec 01          	addl   $0x1,-0x14(%ebp)
    11f6:	83 7d ec 05          	cmpl   $0x5,-0x14(%ebp)
    11fa:	7e db                	jle    11d7 <phase_5+0x3e>
    11fc:	83 7d f0 38          	cmpl   $0x38,-0x10(%ebp)
    1200:	74 05                	je     1207 <phase_5+0x6e>
    1202:	e8 be 06 00 00       	call   18c5 <explode_bomb>
    1207:	90                   	nop
    1208:	8b 5d fc             	mov    -0x4(%ebp),%ebx
    120b:	c9                   	leave  
    120c:	c3                   	ret    

0000120d <phase_6>:
    120d:	55                   	push   %ebp
    120e:	89 e5                	mov    %esp,%ebp
    1210:	53                   	push   %ebx
    1211:	83 ec 64             	sub    $0x64,%esp
    1214:	e8 37 f9 ff ff       	call   b50 <__x86.get_pc_thunk.bx>
    1219:	81 c3 3f 3d 00 00    	add    $0x3d3f,%ebx
    121f:	8b 45 08             	mov    0x8(%ebp),%eax
    1222:	89 45 a4             	mov    %eax,-0x5c(%ebp)
    1225:	65 a1 14 00 00 00    	mov    %gs:0x14,%eax
    122b:	89 45 f4             	mov    %eax,-0xc(%ebp)
    122e:	31 c0                	xor    %eax,%eax
    1230:	8d 83 b8 01 00 00    	lea    0x1b8(%ebx),%eax
    1236:	89 45 c0             	mov    %eax,-0x40(%ebp)
    1239:	83 ec 08             	sub    $0x8,%esp
    123c:	8d 45 c4             	lea    -0x3c(%ebp),%eax
    123f:	50                   	push   %eax
    1240:	ff 75 a4             	pushl  -0x5c(%ebp)
    1243:	e8 fa 02 00 00       	call   1542 <read_six_numbers>
    1248:	83 c4 10             	add    $0x10,%esp
    124b:	c7 45 b8 00 00 00 00 	movl   $0x0,-0x48(%ebp)
    1252:	eb 4c                	jmp    12a0 <phase_6+0x93>
    1254:	8b 45 b8             	mov    -0x48(%ebp),%eax
    1257:	8b 44 85 c4          	mov    -0x3c(%ebp,%eax,4),%eax
    125b:	85 c0                	test   %eax,%eax
    125d:	7e 0c                	jle    126b <phase_6+0x5e>
    125f:	8b 45 b8             	mov    -0x48(%ebp),%eax
    1262:	8b 44 85 c4          	mov    -0x3c(%ebp,%eax,4),%eax
    1266:	83 f8 06             	cmp    $0x6,%eax
    1269:	7e 05                	jle    1270 <phase_6+0x63>
    126b:	e8 55 06 00 00       	call   18c5 <explode_bomb>
    1270:	8b 45 b8             	mov    -0x48(%ebp),%eax
    1273:	83 c0 01             	add    $0x1,%eax
    1276:	89 45 bc             	mov    %eax,-0x44(%ebp)
    1279:	eb 1b                	jmp    1296 <phase_6+0x89>
    127b:	8b 45 b8             	mov    -0x48(%ebp),%eax
    127e:	8b 54 85 c4          	mov    -0x3c(%ebp,%eax,4),%edx
    1282:	8b 45 bc             	mov    -0x44(%ebp),%eax
    1285:	8b 44 85 c4          	mov    -0x3c(%ebp,%eax,4),%eax
    1289:	39 c2                	cmp    %eax,%edx
    128b:	75 05                	jne    1292 <phase_6+0x85>
    128d:	e8 33 06 00 00       	call   18c5 <explode_bomb>
    1292:	83 45 bc 01          	addl   $0x1,-0x44(%ebp)
    1296:	83 7d bc 05          	cmpl   $0x5,-0x44(%ebp)
    129a:	7e df                	jle    127b <phase_6+0x6e>
    129c:	83 45 b8 01          	addl   $0x1,-0x48(%ebp)
    12a0:	83 7d b8 05          	cmpl   $0x5,-0x48(%ebp)
    12a4:	7e ae                	jle    1254 <phase_6+0x47>
    12a6:	c7 45 b8 00 00 00 00 	movl   $0x0,-0x48(%ebp)
    12ad:	eb 19                	jmp    12c8 <phase_6+0xbb>
    12af:	8b 45 b8             	mov    -0x48(%ebp),%eax
    12b2:	8b 44 85 c4          	mov    -0x3c(%ebp,%eax,4),%eax
    12b6:	ba 07 00 00 00       	mov    $0x7,%edx
    12bb:	29 c2                	sub    %eax,%edx
    12bd:	8b 45 b8             	mov    -0x48(%ebp),%eax
    12c0:	89 54 85 c4          	mov    %edx,-0x3c(%ebp,%eax,4)
    12c4:	83 45 b8 01          	addl   $0x1,-0x48(%ebp)
    12c8:	83 7d b8 05          	cmpl   $0x5,-0x48(%ebp)
    12cc:	7e e1                	jle    12af <phase_6+0xa2>
    12ce:	c7 45 b8 00 00 00 00 	movl   $0x0,-0x48(%ebp)
    12d5:	eb 36                	jmp    130d <phase_6+0x100>
    12d7:	8b 45 c0             	mov    -0x40(%ebp),%eax
    12da:	89 45 b4             	mov    %eax,-0x4c(%ebp)
    12dd:	c7 45 bc 01 00 00 00 	movl   $0x1,-0x44(%ebp)
    12e4:	eb 0d                	jmp    12f3 <phase_6+0xe6>
    12e6:	8b 45 b4             	mov    -0x4c(%ebp),%eax
    12e9:	8b 40 08             	mov    0x8(%eax),%eax
    12ec:	89 45 b4             	mov    %eax,-0x4c(%ebp)
    12ef:	83 45 bc 01          	addl   $0x1,-0x44(%ebp)
    12f3:	8b 45 b8             	mov    -0x48(%ebp),%eax
    12f6:	8b 44 85 c4          	mov    -0x3c(%ebp,%eax,4),%eax
    12fa:	39 45 bc             	cmp    %eax,-0x44(%ebp)
    12fd:	7c e7                	jl     12e6 <phase_6+0xd9>
    12ff:	8b 45 b8             	mov    -0x48(%ebp),%eax
    1302:	8b 55 b4             	mov    -0x4c(%ebp),%edx
    1305:	89 54 85 dc          	mov    %edx,-0x24(%ebp,%eax,4)
    1309:	83 45 b8 01          	addl   $0x1,-0x48(%ebp)
    130d:	83 7d b8 05          	cmpl   $0x5,-0x48(%ebp)
    1311:	7e c4                	jle    12d7 <phase_6+0xca>
    1313:	8b 45 dc             	mov    -0x24(%ebp),%eax
    1316:	89 45 c0             	mov    %eax,-0x40(%ebp)
    1319:	8b 45 c0             	mov    -0x40(%ebp),%eax
    131c:	89 45 b4             	mov    %eax,-0x4c(%ebp)
    131f:	c7 45 b8 01 00 00 00 	movl   $0x1,-0x48(%ebp)
    1326:	eb 1a                	jmp    1342 <phase_6+0x135>
    1328:	8b 45 b8             	mov    -0x48(%ebp),%eax
    132b:	8b 54 85 dc          	mov    -0x24(%ebp,%eax,4),%edx
    132f:	8b 45 b4             	mov    -0x4c(%ebp),%eax
    1332:	89 50 08             	mov    %edx,0x8(%eax)
    1335:	8b 45 b4             	mov    -0x4c(%ebp),%eax
    1338:	8b 40 08             	mov    0x8(%eax),%eax
    133b:	89 45 b4             	mov    %eax,-0x4c(%ebp)
    133e:	83 45 b8 01          	addl   $0x1,-0x48(%ebp)
    1342:	83 7d b8 05          	cmpl   $0x5,-0x48(%ebp)
    1346:	7e e0                	jle    1328 <phase_6+0x11b>
    1348:	8b 45 b4             	mov    -0x4c(%ebp),%eax
    134b:	c7 40 08 00 00 00 00 	movl   $0x0,0x8(%eax)
    1352:	8b 45 c0             	mov    -0x40(%ebp),%eax
    1355:	89 45 b4             	mov    %eax,-0x4c(%ebp)
    1358:	c7 45 b8 00 00 00 00 	movl   $0x0,-0x48(%ebp)
    135f:	eb 23                	jmp    1384 <phase_6+0x177>
    1361:	8b 45 b4             	mov    -0x4c(%ebp),%eax
    1364:	8b 10                	mov    (%eax),%edx
    1366:	8b 45 b4             	mov    -0x4c(%ebp),%eax
    1369:	8b 40 08             	mov    0x8(%eax),%eax
    136c:	8b 00                	mov    (%eax),%eax
    136e:	39 c2                	cmp    %eax,%edx
    1370:	7d 05                	jge    1377 <phase_6+0x16a>
    1372:	e8 4e 05 00 00       	call   18c5 <explode_bomb>
    1377:	8b 45 b4             	mov    -0x4c(%ebp),%eax
    137a:	8b 40 08             	mov    0x8(%eax),%eax
    137d:	89 45 b4             	mov    %eax,-0x4c(%ebp)
    1380:	83 45 b8 01          	addl   $0x1,-0x48(%ebp)
    1384:	83 7d b8 04          	cmpl   $0x4,-0x48(%ebp)
    1388:	7e d7                	jle    1361 <phase_6+0x154>
    138a:	90                   	nop
    138b:	8b 45 f4             	mov    -0xc(%ebp),%eax
    138e:	65 33 05 14 00 00 00 	xor    %gs:0x14,%eax
    1395:	74 05                	je     139c <phase_6+0x18f>
    1397:	e8 54 15 00 00       	call   28f0 <__stack_chk_fail_local>
    139c:	8b 5d fc             	mov    -0x4(%ebp),%ebx
    139f:	c9                   	leave  
    13a0:	c3                   	ret    

000013a1 <fun7>:
    13a1:	55                   	push   %ebp
    13a2:	89 e5                	mov    %esp,%ebp
    13a4:	83 ec 08             	sub    $0x8,%esp
    13a7:	e8 e1 00 00 00       	call   148d <__x86.get_pc_thunk.ax>
    13ac:	05 ac 3b 00 00       	add    $0x3bac,%eax
    13b1:	83 7d 08 00          	cmpl   $0x0,0x8(%ebp)
    13b5:	75 07                	jne    13be <fun7+0x1d>
    13b7:	b8 ff ff ff ff       	mov    $0xffffffff,%eax
    13bc:	eb 4e                	jmp    140c <fun7+0x6b>
    13be:	8b 45 08             	mov    0x8(%ebp),%eax
    13c1:	8b 00                	mov    (%eax),%eax
    13c3:	39 45 0c             	cmp    %eax,0xc(%ebp)
    13c6:	7d 19                	jge    13e1 <fun7+0x40>
    13c8:	8b 45 08             	mov    0x8(%ebp),%eax
    13cb:	8b 40 04             	mov    0x4(%eax),%eax
    13ce:	83 ec 08             	sub    $0x8,%esp
    13d1:	ff 75 0c             	pushl  0xc(%ebp)
    13d4:	50                   	push   %eax
    13d5:	e8 c7 ff ff ff       	call   13a1 <fun7>
    13da:	83 c4 10             	add    $0x10,%esp
    13dd:	01 c0                	add    %eax,%eax
    13df:	eb 2b                	jmp    140c <fun7+0x6b>
    13e1:	8b 45 08             	mov    0x8(%ebp),%eax
    13e4:	8b 00                	mov    (%eax),%eax
    13e6:	39 45 0c             	cmp    %eax,0xc(%ebp)
    13e9:	75 07                	jne    13f2 <fun7+0x51>
    13eb:	b8 00 00 00 00       	mov    $0x0,%eax
    13f0:	eb 1a                	jmp    140c <fun7+0x6b>
    13f2:	8b 45 08             	mov    0x8(%ebp),%eax
    13f5:	8b 40 08             	mov    0x8(%eax),%eax
    13f8:	83 ec 08             	sub    $0x8,%esp
    13fb:	ff 75 0c             	pushl  0xc(%ebp)
    13fe:	50                   	push   %eax
    13ff:	e8 9d ff ff ff       	call   13a1 <fun7>
    1404:	83 c4 10             	add    $0x10,%esp
    1407:	01 c0                	add    %eax,%eax
    1409:	83 c0 01             	add    $0x1,%eax
    140c:	c9                   	leave  
    140d:	c3                   	ret    

0000140e <secret_phase>:
    140e:	55                   	push   %ebp
    140f:	89 e5                	mov    %esp,%ebp
    1411:	53                   	push   %ebx
    1412:	83 ec 14             	sub    $0x14,%esp
    1415:	e8 36 f7 ff ff       	call   b50 <__x86.get_pc_thunk.bx>
    141a:	81 c3 3e 3b 00 00    	add    $0x3b3e,%ebx
    1420:	e8 26 03 00 00       	call   174b <read_line>
    1425:	89 45 ec             	mov    %eax,-0x14(%ebp)
    1428:	83 ec 0c             	sub    $0xc,%esp
    142b:	ff 75 ec             	pushl  -0x14(%ebp)
    142e:	e8 6d f6 ff ff       	call   aa0 <atoi@plt>
    1433:	83 c4 10             	add    $0x10,%esp
    1436:	89 45 f0             	mov    %eax,-0x10(%ebp)
    1439:	83 7d f0 00          	cmpl   $0x0,-0x10(%ebp)
    143d:	7e 09                	jle    1448 <secret_phase+0x3a>
    143f:	81 7d f0 e9 03 00 00 	cmpl   $0x3e9,-0x10(%ebp)
    1446:	7e 05                	jle    144d <secret_phase+0x3f>
    1448:	e8 78 04 00 00       	call   18c5 <explode_bomb>
    144d:	83 ec 08             	sub    $0x8,%esp
    1450:	ff 75 f0             	pushl  -0x10(%ebp)
    1453:	8d 83 0c 02 00 00    	lea    0x20c(%ebx),%eax
    1459:	50                   	push   %eax
    145a:	e8 42 ff ff ff       	call   13a1 <fun7>
    145f:	83 c4 10             	add    $0x10,%esp
    1462:	89 45 f4             	mov    %eax,-0xc(%ebp)
    1465:	83 7d f4 03          	cmpl   $0x3,-0xc(%ebp)
    1469:	74 05                	je     1470 <secret_phase+0x62>
    146b:	e8 55 04 00 00       	call   18c5 <explode_bomb>
    1470:	83 ec 0c             	sub    $0xc,%esp
    1473:	8d 83 64 db ff ff    	lea    -0x249c(%ebx),%eax
    1479:	50                   	push   %eax
    147a:	e8 81 f5 ff ff       	call   a00 <puts@plt>
    147f:	83 c4 10             	add    $0x10,%esp
    1482:	e8 7e 04 00 00       	call   1905 <phase_defused>
    1487:	90                   	nop
    1488:	8b 5d fc             	mov    -0x4(%ebp),%ebx
    148b:	c9                   	leave  
    148c:	c3                   	ret    

0000148d <__x86.get_pc_thunk.ax>:
    148d:	8b 04 24             	mov    (%esp),%eax
    1490:	c3                   	ret    

00001491 <sig_handler>:
    1491:	55                   	push   %ebp
    1492:	89 e5                	mov    %esp,%ebp
    1494:	53                   	push   %ebx
    1495:	83 ec 04             	sub    $0x4,%esp
    1498:	e8 b3 f6 ff ff       	call   b50 <__x86.get_pc_thunk.bx>
    149d:	81 c3 bb 3a 00 00    	add    $0x3abb,%ebx
    14a3:	83 ec 0c             	sub    $0xc,%esp
    14a6:	8d 83 f4 db ff ff    	lea    -0x240c(%ebx),%eax
    14ac:	50                   	push   %eax
    14ad:	e8 4e f5 ff ff       	call   a00 <puts@plt>
    14b2:	83 c4 10             	add    $0x10,%esp
    14b5:	83 ec 0c             	sub    $0xc,%esp
    14b8:	6a 03                	push   $0x3
    14ba:	e8 d1 f4 ff ff       	call   990 <sleep@plt>
    14bf:	83 c4 10             	add    $0x10,%esp
    14c2:	83 ec 0c             	sub    $0xc,%esp
    14c5:	8d 83 2c dc ff ff    	lea    -0x23d4(%ebx),%eax
    14cb:	50                   	push   %eax
    14cc:	e8 5f f4 ff ff       	call   930 <printf@plt>
    14d1:	83 c4 10             	add    $0x10,%esp
    14d4:	8b 83 9c 00 00 00    	mov    0x9c(%ebx),%eax
    14da:	8b 00                	mov    (%eax),%eax
    14dc:	83 ec 0c             	sub    $0xc,%esp
    14df:	50                   	push   %eax
    14e0:	e8 5b f4 ff ff       	call   940 <fflush@plt>
    14e5:	83 c4 10             	add    $0x10,%esp
    14e8:	83 ec 0c             	sub    $0xc,%esp
    14eb:	6a 01                	push   $0x1
    14ed:	e8 9e f4 ff ff       	call   990 <sleep@plt>
    14f2:	83 c4 10             	add    $0x10,%esp
    14f5:	83 ec 0c             	sub    $0xc,%esp
    14f8:	8d 83 34 dc ff ff    	lea    -0x23cc(%ebx),%eax
    14fe:	50                   	push   %eax
    14ff:	e8 fc f4 ff ff       	call   a00 <puts@plt>
    1504:	83 c4 10             	add    $0x10,%esp
    1507:	83 ec 0c             	sub    $0xc,%esp
    150a:	6a 10                	push   $0x10
    150c:	e8 ff f4 ff ff       	call   a10 <exit@plt>

00001511 <invalid_phase>:
    1511:	55                   	push   %ebp
    1512:	89 e5                	mov    %esp,%ebp
    1514:	53                   	push   %ebx
    1515:	83 ec 04             	sub    $0x4,%esp
    1518:	e8 33 f6 ff ff       	call   b50 <__x86.get_pc_thunk.bx>
    151d:	81 c3 3b 3a 00 00    	add    $0x3a3b,%ebx
    1523:	83 ec 08             	sub    $0x8,%esp
    1526:	ff 75 08             	pushl  0x8(%ebp)
    1529:	8d 83 3c dc ff ff    	lea    -0x23c4(%ebx),%eax
    152f:	50                   	push   %eax
    1530:	e8 fb f3 ff ff       	call   930 <printf@plt>
    1535:	83 c4 10             	add    $0x10,%esp
    1538:	83 ec 0c             	sub    $0xc,%esp
    153b:	6a 08                	push   $0x8
    153d:	e8 ce f4 ff ff       	call   a10 <exit@plt>

00001542 <read_six_numbers>:
    1542:	55                   	push   %ebp
    1543:	89 e5                	mov    %esp,%ebp
    1545:	57                   	push   %edi
    1546:	56                   	push   %esi
    1547:	53                   	push   %ebx
    1548:	83 ec 1c             	sub    $0x1c,%esp
    154b:	e8 3d ff ff ff       	call   148d <__x86.get_pc_thunk.ax>
    1550:	05 08 3a 00 00       	add    $0x3a08,%eax
    1555:	8b 55 0c             	mov    0xc(%ebp),%edx
    1558:	8d 7a 14             	lea    0x14(%edx),%edi
    155b:	8b 55 0c             	mov    0xc(%ebp),%edx
    155e:	8d 72 10             	lea    0x10(%edx),%esi
    1561:	8b 55 0c             	mov    0xc(%ebp),%edx
    1564:	8d 5a 0c             	lea    0xc(%edx),%ebx
    1567:	8b 55 0c             	mov    0xc(%ebp),%edx
    156a:	8d 4a 08             	lea    0x8(%edx),%ecx
    156d:	8b 55 0c             	mov    0xc(%ebp),%edx
    1570:	83 c2 04             	add    $0x4,%edx
    1573:	57                   	push   %edi
    1574:	56                   	push   %esi
    1575:	53                   	push   %ebx
    1576:	51                   	push   %ecx
    1577:	52                   	push   %edx
    1578:	ff 75 0c             	pushl  0xc(%ebp)
    157b:	8d 90 4d dc ff ff    	lea    -0x23b3(%eax),%edx
    1581:	52                   	push   %edx
    1582:	ff 75 08             	pushl  0x8(%ebp)
    1585:	89 c3                	mov    %eax,%ebx
    1587:	e8 d4 f4 ff ff       	call   a60 <__isoc99_sscanf@plt>
    158c:	83 c4 20             	add    $0x20,%esp
    158f:	89 45 e4             	mov    %eax,-0x1c(%ebp)
    1592:	83 7d e4 05          	cmpl   $0x5,-0x1c(%ebp)
    1596:	7f 05                	jg     159d <read_six_numbers+0x5b>
    1598:	e8 28 03 00 00       	call   18c5 <explode_bomb>
    159d:	90                   	nop
    159e:	8d 65 f4             	lea    -0xc(%ebp),%esp
    15a1:	5b                   	pop    %ebx
    15a2:	5e                   	pop    %esi
    15a3:	5f                   	pop    %edi
    15a4:	5d                   	pop    %ebp
    15a5:	c3                   	ret    

000015a6 <string_length>:
    15a6:	55                   	push   %ebp
    15a7:	89 e5                	mov    %esp,%ebp
    15a9:	83 ec 10             	sub    $0x10,%esp
    15ac:	e8 dc fe ff ff       	call   148d <__x86.get_pc_thunk.ax>
    15b1:	05 a7 39 00 00       	add    $0x39a7,%eax
    15b6:	8b 45 08             	mov    0x8(%ebp),%eax
    15b9:	89 45 fc             	mov    %eax,-0x4(%ebp)
    15bc:	c7 45 f8 00 00 00 00 	movl   $0x0,-0x8(%ebp)
    15c3:	eb 08                	jmp    15cd <string_length+0x27>
    15c5:	83 45 fc 01          	addl   $0x1,-0x4(%ebp)
    15c9:	83 45 f8 01          	addl   $0x1,-0x8(%ebp)
    15cd:	8b 45 fc             	mov    -0x4(%ebp),%eax
    15d0:	0f b6 00             	movzbl (%eax),%eax
    15d3:	84 c0                	test   %al,%al
    15d5:	75 ee                	jne    15c5 <string_length+0x1f>
    15d7:	8b 45 f8             	mov    -0x8(%ebp),%eax
    15da:	c9                   	leave  
    15db:	c3                   	ret    

000015dc <strings_not_equal>:
    15dc:	55                   	push   %ebp
    15dd:	89 e5                	mov    %esp,%ebp
    15df:	53                   	push   %ebx
    15e0:	83 ec 10             	sub    $0x10,%esp
    15e3:	e8 a5 fe ff ff       	call   148d <__x86.get_pc_thunk.ax>
    15e8:	05 70 39 00 00       	add    $0x3970,%eax
    15ed:	ff 75 08             	pushl  0x8(%ebp)
    15f0:	e8 b1 ff ff ff       	call   15a6 <string_length>
    15f5:	83 c4 04             	add    $0x4,%esp
    15f8:	89 c3                	mov    %eax,%ebx
    15fa:	ff 75 0c             	pushl  0xc(%ebp)
    15fd:	e8 a4 ff ff ff       	call   15a6 <string_length>
    1602:	83 c4 04             	add    $0x4,%esp
    1605:	39 c3                	cmp    %eax,%ebx
    1607:	74 07                	je     1610 <strings_not_equal+0x34>
    1609:	b8 01 00 00 00       	mov    $0x1,%eax
    160e:	eb 3c                	jmp    164c <strings_not_equal+0x70>
    1610:	8b 45 08             	mov    0x8(%ebp),%eax
    1613:	89 45 f4             	mov    %eax,-0xc(%ebp)
    1616:	8b 45 0c             	mov    0xc(%ebp),%eax
    1619:	89 45 f8             	mov    %eax,-0x8(%ebp)
    161c:	eb 1f                	jmp    163d <strings_not_equal+0x61>
    161e:	8b 45 f4             	mov    -0xc(%ebp),%eax
    1621:	0f b6 10             	movzbl (%eax),%edx
    1624:	8b 45 f8             	mov    -0x8(%ebp),%eax
    1627:	0f b6 00             	movzbl (%eax),%eax
    162a:	38 c2                	cmp    %al,%dl
    162c:	74 07                	je     1635 <strings_not_equal+0x59>
    162e:	b8 01 00 00 00       	mov    $0x1,%eax
    1633:	eb 17                	jmp    164c <strings_not_equal+0x70>
    1635:	83 45 f4 01          	addl   $0x1,-0xc(%ebp)
    1639:	83 45 f8 01          	addl   $0x1,-0x8(%ebp)
    163d:	8b 45 f4             	mov    -0xc(%ebp),%eax
    1640:	0f b6 00             	movzbl (%eax),%eax
    1643:	84 c0                	test   %al,%al
    1645:	75 d7                	jne    161e <strings_not_equal+0x42>
    1647:	b8 00 00 00 00       	mov    $0x0,%eax
    164c:	8b 5d fc             	mov    -0x4(%ebp),%ebx
    164f:	c9                   	leave  
    1650:	c3                   	ret    

00001651 <initialize_bomb>:
    1651:	55                   	push   %ebp
    1652:	89 e5                	mov    %esp,%ebp
    1654:	53                   	push   %ebx
    1655:	83 ec 04             	sub    $0x4,%esp
    1658:	e8 30 fe ff ff       	call   148d <__x86.get_pc_thunk.ax>
    165d:	05 fb 38 00 00       	add    $0x38fb,%eax
    1662:	83 ec 08             	sub    $0x8,%esp
    1665:	8d 90 39 c5 ff ff    	lea    -0x3ac7(%eax),%edx
    166b:	52                   	push   %edx
    166c:	6a 02                	push   $0x2
    166e:	89 c3                	mov    %eax,%ebx
    1670:	e8 0b f3 ff ff       	call   980 <signal@plt>
    1675:	83 c4 10             	add    $0x10,%esp
    1678:	90                   	nop
    1679:	8b 5d fc             	mov    -0x4(%ebp),%ebx
    167c:	c9                   	leave  
    167d:	c3                   	ret    

0000167e <initialize_bomb_solve>:
    167e:	55                   	push   %ebp
    167f:	89 e5                	mov    %esp,%ebp
    1681:	e8 07 fe ff ff       	call   148d <__x86.get_pc_thunk.ax>
    1686:	05 d2 38 00 00       	add    $0x38d2,%eax
    168b:	90                   	nop
    168c:	5d                   	pop    %ebp
    168d:	c3                   	ret    

0000168e <blank_line>:
    168e:	55                   	push   %ebp
    168f:	89 e5                	mov    %esp,%ebp
    1691:	53                   	push   %ebx
    1692:	83 ec 04             	sub    $0x4,%esp
    1695:	e8 b6 f4 ff ff       	call   b50 <__x86.get_pc_thunk.bx>
    169a:	81 c3 be 38 00 00    	add    $0x38be,%ebx
    16a0:	eb 30                	jmp    16d2 <blank_line+0x44>
    16a2:	e8 49 f4 ff ff       	call   af0 <__ctype_b_loc@plt>
    16a7:	8b 08                	mov    (%eax),%ecx
    16a9:	8b 45 08             	mov    0x8(%ebp),%eax
    16ac:	8d 50 01             	lea    0x1(%eax),%edx
    16af:	89 55 08             	mov    %edx,0x8(%ebp)
    16b2:	0f b6 00             	movzbl (%eax),%eax
    16b5:	0f be c0             	movsbl %al,%eax
    16b8:	01 c0                	add    %eax,%eax
    16ba:	01 c8                	add    %ecx,%eax
    16bc:	0f b7 00             	movzwl (%eax),%eax
    16bf:	0f b7 c0             	movzwl %ax,%eax
    16c2:	25 00 20 00 00       	and    $0x2000,%eax
    16c7:	85 c0                	test   %eax,%eax
    16c9:	75 07                	jne    16d2 <blank_line+0x44>
    16cb:	b8 00 00 00 00       	mov    $0x0,%eax
    16d0:	eb 0f                	jmp    16e1 <blank_line+0x53>
    16d2:	8b 45 08             	mov    0x8(%ebp),%eax
    16d5:	0f b6 00             	movzbl (%eax),%eax
    16d8:	84 c0                	test   %al,%al
    16da:	75 c6                	jne    16a2 <blank_line+0x14>
    16dc:	b8 01 00 00 00       	mov    $0x1,%eax
    16e1:	83 c4 04             	add    $0x4,%esp
    16e4:	5b                   	pop    %ebx
    16e5:	5d                   	pop    %ebp
    16e6:	c3                   	ret    

000016e7 <skip>:
    16e7:	55                   	push   %ebp
    16e8:	89 e5                	mov    %esp,%ebp
    16ea:	53                   	push   %ebx
    16eb:	83 ec 14             	sub    $0x14,%esp
    16ee:	e8 5d f4 ff ff       	call   b50 <__x86.get_pc_thunk.bx>
    16f3:	81 c3 65 38 00 00    	add    $0x3865,%ebx
    16f9:	8d 83 30 04 00 00    	lea    0x430(%ebx),%eax
    16ff:	8b 08                	mov    (%eax),%ecx
    1701:	8b 93 2c 04 00 00    	mov    0x42c(%ebx),%edx
    1707:	89 d0                	mov    %edx,%eax
    1709:	c1 e0 02             	shl    $0x2,%eax
    170c:	01 d0                	add    %edx,%eax
    170e:	c1 e0 04             	shl    $0x4,%eax
    1711:	8d 93 48 04 00 00    	lea    0x448(%ebx),%edx
    1717:	01 d0                	add    %edx,%eax
    1719:	83 ec 04             	sub    $0x4,%esp
    171c:	51                   	push   %ecx
    171d:	6a 50                	push   $0x50
    171f:	50                   	push   %eax
    1720:	e8 4b f2 ff ff       	call   970 <fgets@plt>
    1725:	83 c4 10             	add    $0x10,%esp
    1728:	89 45 f4             	mov    %eax,-0xc(%ebp)
    172b:	83 7d f4 00          	cmpl   $0x0,-0xc(%ebp)
    172f:	74 12                	je     1743 <skip+0x5c>
    1731:	83 ec 0c             	sub    $0xc,%esp
    1734:	ff 75 f4             	pushl  -0xc(%ebp)
    1737:	e8 52 ff ff ff       	call   168e <blank_line>
    173c:	83 c4 10             	add    $0x10,%esp
    173f:	85 c0                	test   %eax,%eax
    1741:	75 b6                	jne    16f9 <skip+0x12>
    1743:	8b 45 f4             	mov    -0xc(%ebp),%eax
    1746:	8b 5d fc             	mov    -0x4(%ebp),%ebx
    1749:	c9                   	leave  
    174a:	c3                   	ret    

0000174b <read_line>:
    174b:	55                   	push   %ebp
    174c:	89 e5                	mov    %esp,%ebp
    174e:	56                   	push   %esi
    174f:	53                   	push   %ebx
    1750:	83 ec 10             	sub    $0x10,%esp
    1753:	e8 f8 f3 ff ff       	call   b50 <__x86.get_pc_thunk.bx>
    1758:	81 c3 00 38 00 00    	add    $0x3800,%ebx
    175e:	e8 84 ff ff ff       	call   16e7 <skip>
    1763:	89 45 f0             	mov    %eax,-0x10(%ebp)
    1766:	83 7d f0 00          	cmpl   $0x0,-0x10(%ebp)
    176a:	0f 85 8a 00 00 00    	jne    17fa <read_line+0xaf>
    1770:	8d 83 30 04 00 00    	lea    0x430(%ebx),%eax
    1776:	8b 10                	mov    (%eax),%edx
    1778:	8b 83 98 00 00 00    	mov    0x98(%ebx),%eax
    177e:	8b 00                	mov    (%eax),%eax
    1780:	39 c2                	cmp    %eax,%edx
    1782:	75 1c                	jne    17a0 <read_line+0x55>
    1784:	83 ec 0c             	sub    $0xc,%esp
    1787:	8d 83 5f dc ff ff    	lea    -0x23a1(%ebx),%eax
    178d:	50                   	push   %eax
    178e:	e8 6d f2 ff ff       	call   a00 <puts@plt>
    1793:	83 c4 10             	add    $0x10,%esp
    1796:	83 ec 0c             	sub    $0xc,%esp
    1799:	6a 08                	push   $0x8
    179b:	e8 70 f2 ff ff       	call   a10 <exit@plt>
    17a0:	83 ec 0c             	sub    $0xc,%esp
    17a3:	8d 83 7d dc ff ff    	lea    -0x2383(%ebx),%eax
    17a9:	50                   	push   %eax
    17aa:	e8 41 f2 ff ff       	call   9f0 <getenv@plt>
    17af:	83 c4 10             	add    $0x10,%esp
    17b2:	85 c0                	test   %eax,%eax
    17b4:	74 0a                	je     17c0 <read_line+0x75>
    17b6:	83 ec 0c             	sub    $0xc,%esp
    17b9:	6a 00                	push   $0x0
    17bb:	e8 50 f2 ff ff       	call   a10 <exit@plt>
    17c0:	8b 83 98 00 00 00    	mov    0x98(%ebx),%eax
    17c6:	8b 10                	mov    (%eax),%edx
    17c8:	8d 83 30 04 00 00    	lea    0x430(%ebx),%eax
    17ce:	89 10                	mov    %edx,(%eax)
    17d0:	e8 12 ff ff ff       	call   16e7 <skip>
    17d5:	89 45 f0             	mov    %eax,-0x10(%ebp)
    17d8:	83 7d f0 00          	cmpl   $0x0,-0x10(%ebp)
    17dc:	75 1c                	jne    17fa <read_line+0xaf>
    17de:	83 ec 0c             	sub    $0xc,%esp
    17e1:	8d 83 5f dc ff ff    	lea    -0x23a1(%ebx),%eax
    17e7:	50                   	push   %eax
    17e8:	e8 13 f2 ff ff       	call   a00 <puts@plt>
    17ed:	83 c4 10             	add    $0x10,%esp
    17f0:	83 ec 0c             	sub    $0xc,%esp
    17f3:	6a 00                	push   $0x0
    17f5:	e8 16 f2 ff ff       	call   a10 <exit@plt>
    17fa:	8b 93 2c 04 00 00    	mov    0x42c(%ebx),%edx
    1800:	89 d0                	mov    %edx,%eax
    1802:	c1 e0 02             	shl    $0x2,%eax
    1805:	01 d0                	add    %edx,%eax
    1807:	c1 e0 04             	shl    $0x4,%eax
    180a:	8d 93 48 04 00 00    	lea    0x448(%ebx),%edx
    1810:	01 d0                	add    %edx,%eax
    1812:	83 ec 0c             	sub    $0xc,%esp
    1815:	50                   	push   %eax
    1816:	e8 05 f2 ff ff       	call   a20 <strlen@plt>
    181b:	83 c4 10             	add    $0x10,%esp
    181e:	89 45 f4             	mov    %eax,-0xc(%ebp)
    1821:	83 7d f4 4e          	cmpl   $0x4e,-0xc(%ebp)
    1825:	7e 53                	jle    187a <read_line+0x12f>
    1827:	83 ec 0c             	sub    $0xc,%esp
    182a:	8d 83 88 dc ff ff    	lea    -0x2378(%ebx),%eax
    1830:	50                   	push   %eax
    1831:	e8 ca f1 ff ff       	call   a00 <puts@plt>
    1836:	83 c4 10             	add    $0x10,%esp
    1839:	8b 93 2c 04 00 00    	mov    0x42c(%ebx),%edx
    183f:	8d 42 01             	lea    0x1(%edx),%eax
    1842:	89 83 2c 04 00 00    	mov    %eax,0x42c(%ebx)
    1848:	89 d0                	mov    %edx,%eax
    184a:	c1 e0 02             	shl    $0x2,%eax
    184d:	01 d0                	add    %edx,%eax
    184f:	c1 e0 04             	shl    $0x4,%eax
    1852:	8d 93 48 04 00 00    	lea    0x448(%ebx),%edx
    1858:	01 d0                	add    %edx,%eax
    185a:	c7 00 2a 2a 2a 74    	movl   $0x742a2a2a,(%eax)
    1860:	c7 40 04 72 75 6e 63 	movl   $0x636e7572,0x4(%eax)
    1867:	c7 40 08 61 74 65 64 	movl   $0x64657461,0x8(%eax)
    186e:	c7 40 0c 2a 2a 2a 00 	movl   $0x2a2a2a,0xc(%eax)
    1875:	e8 4b 00 00 00       	call   18c5 <explode_bomb>
    187a:	8b 93 2c 04 00 00    	mov    0x42c(%ebx),%edx
    1880:	8b 45 f4             	mov    -0xc(%ebp),%eax
    1883:	8d 70 ff             	lea    -0x1(%eax),%esi
    1886:	8d 8b 48 04 00 00    	lea    0x448(%ebx),%ecx
    188c:	89 d0                	mov    %edx,%eax
    188e:	c1 e0 02             	shl    $0x2,%eax
    1891:	01 d0                	add    %edx,%eax
    1893:	c1 e0 04             	shl    $0x4,%eax
    1896:	01 c8                	add    %ecx,%eax
    1898:	01 f0                	add    %esi,%eax
    189a:	c6 00 00             	movb   $0x0,(%eax)
    189d:	8b 93 2c 04 00 00    	mov    0x42c(%ebx),%edx
    18a3:	8d 42 01             	lea    0x1(%edx),%eax
    18a6:	89 83 2c 04 00 00    	mov    %eax,0x42c(%ebx)
    18ac:	89 d0                	mov    %edx,%eax
    18ae:	c1 e0 02             	shl    $0x2,%eax
    18b1:	01 d0                	add    %edx,%eax
    18b3:	c1 e0 04             	shl    $0x4,%eax
    18b6:	8d 93 48 04 00 00    	lea    0x448(%ebx),%edx
    18bc:	01 d0                	add    %edx,%eax
    18be:	8d 65 f8             	lea    -0x8(%ebp),%esp
    18c1:	5b                   	pop    %ebx
    18c2:	5e                   	pop    %esi
    18c3:	5d                   	pop    %ebp
    18c4:	c3                   	ret    

000018c5 <explode_bomb>:
    18c5:	55                   	push   %ebp
    18c6:	89 e5                	mov    %esp,%ebp
    18c8:	53                   	push   %ebx
    18c9:	83 ec 04             	sub    $0x4,%esp
    18cc:	e8 7f f2 ff ff       	call   b50 <__x86.get_pc_thunk.bx>
    18d1:	81 c3 87 36 00 00    	add    $0x3687,%ebx
    18d7:	83 ec 0c             	sub    $0xc,%esp
    18da:	8d 83 a3 dc ff ff    	lea    -0x235d(%ebx),%eax
    18e0:	50                   	push   %eax
    18e1:	e8 1a f1 ff ff       	call   a00 <puts@plt>
    18e6:	83 c4 10             	add    $0x10,%esp
    18e9:	83 ec 0c             	sub    $0xc,%esp
    18ec:	8d 83 ac dc ff ff    	lea    -0x2354(%ebx),%eax
    18f2:	50                   	push   %eax
    18f3:	e8 08 f1 ff ff       	call   a00 <puts@plt>
    18f8:	83 c4 10             	add    $0x10,%esp
    18fb:	83 ec 0c             	sub    $0xc,%esp
    18fe:	6a 08                	push   $0x8
    1900:	e8 0b f1 ff ff       	call   a10 <exit@plt>

00001905 <phase_defused>:
    1905:	55                   	push   %ebp
    1906:	89 e5                	mov    %esp,%ebp
    1908:	53                   	push   %ebx
    1909:	83 ec 64             	sub    $0x64,%esp
    190c:	e8 3f f2 ff ff       	call   b50 <__x86.get_pc_thunk.bx>
    1911:	81 c3 47 36 00 00    	add    $0x3647,%ebx
    1917:	65 a1 14 00 00 00    	mov    %gs:0x14,%eax
    191d:	89 45 f4             	mov    %eax,-0xc(%ebp)
    1920:	31 c0                	xor    %eax,%eax
    1922:	8b 83 2c 04 00 00    	mov    0x42c(%ebx),%eax
    1928:	83 f8 06             	cmp    $0x6,%eax
    192b:	0f 85 89 00 00 00    	jne    19ba <phase_defused+0xb5>
    1931:	83 ec 0c             	sub    $0xc,%esp
    1934:	8d 45 a4             	lea    -0x5c(%ebp),%eax
    1937:	50                   	push   %eax
    1938:	8d 45 9c             	lea    -0x64(%ebp),%eax
    193b:	50                   	push   %eax
    193c:	8d 45 98             	lea    -0x68(%ebp),%eax
    193f:	50                   	push   %eax
    1940:	8d 83 c3 dc ff ff    	lea    -0x233d(%ebx),%eax
    1946:	50                   	push   %eax
    1947:	8d 83 48 04 00 00    	lea    0x448(%ebx),%eax
    194d:	8d 80 f0 00 00 00    	lea    0xf0(%eax),%eax
    1953:	50                   	push   %eax
    1954:	e8 07 f1 ff ff       	call   a60 <__isoc99_sscanf@plt>
    1959:	83 c4 20             	add    $0x20,%esp
    195c:	89 45 a0             	mov    %eax,-0x60(%ebp)
    195f:	83 7d a0 03          	cmpl   $0x3,-0x60(%ebp)
    1963:	75 43                	jne    19a8 <phase_defused+0xa3>
    1965:	83 ec 08             	sub    $0x8,%esp
    1968:	8d 83 cc dc ff ff    	lea    -0x2334(%ebx),%eax
    196e:	50                   	push   %eax
    196f:	8d 45 a4             	lea    -0x5c(%ebp),%eax
    1972:	50                   	push   %eax
    1973:	e8 64 fc ff ff       	call   15dc <strings_not_equal>
    1978:	83 c4 10             	add    $0x10,%esp
    197b:	85 c0                	test   %eax,%eax
    197d:	75 29                	jne    19a8 <phase_defused+0xa3>
    197f:	83 ec 0c             	sub    $0xc,%esp
    1982:	8d 83 d4 dc ff ff    	lea    -0x232c(%ebx),%eax
    1988:	50                   	push   %eax
    1989:	e8 72 f0 ff ff       	call   a00 <puts@plt>
    198e:	83 c4 10             	add    $0x10,%esp
    1991:	83 ec 0c             	sub    $0xc,%esp
    1994:	8d 83 fc dc ff ff    	lea    -0x2304(%ebx),%eax
    199a:	50                   	push   %eax
    199b:	e8 60 f0 ff ff       	call   a00 <puts@plt>
    19a0:	83 c4 10             	add    $0x10,%esp
    19a3:	e8 66 fa ff ff       	call   140e <secret_phase>
    19a8:	83 ec 0c             	sub    $0xc,%esp
    19ab:	8d 83 34 dd ff ff    	lea    -0x22cc(%ebx),%eax
    19b1:	50                   	push   %eax
    19b2:	e8 49 f0 ff ff       	call   a00 <puts@plt>
    19b7:	83 c4 10             	add    $0x10,%esp
    19ba:	90                   	nop
    19bb:	8b 45 f4             	mov    -0xc(%ebp),%eax
    19be:	65 33 05 14 00 00 00 	xor    %gs:0x14,%eax
    19c5:	74 05                	je     19cc <phase_defused+0xc7>
    19c7:	e8 24 0f 00 00       	call   28f0 <__stack_chk_fail_local>
    19cc:	8b 5d fc             	mov    -0x4(%ebp),%ebx
    19cf:	c9                   	leave  
    19d0:	c3                   	ret    

000019d1 <sigalrm_handler>:
    19d1:	55                   	push   %ebp
    19d2:	89 e5                	mov    %esp,%ebp
    19d4:	53                   	push   %ebx
    19d5:	83 ec 04             	sub    $0x4,%esp
    19d8:	e8 73 f1 ff ff       	call   b50 <__x86.get_pc_thunk.bx>
    19dd:	81 c3 7b 35 00 00    	add    $0x357b,%ebx
    19e3:	8b 83 8c 00 00 00    	mov    0x8c(%ebx),%eax
    19e9:	8b 00                	mov    (%eax),%eax
    19eb:	83 ec 04             	sub    $0x4,%esp
    19ee:	6a 00                	push   $0x0
    19f0:	8d 93 60 dd ff ff    	lea    -0x22a0(%ebx),%edx
    19f6:	52                   	push   %edx
    19f7:	50                   	push   %eax
    19f8:	e8 43 f0 ff ff       	call   a40 <fprintf@plt>
    19fd:	83 c4 10             	add    $0x10,%esp
    1a00:	83 ec 0c             	sub    $0xc,%esp
    1a03:	6a 01                	push   $0x1
    1a05:	e8 06 f0 ff ff       	call   a10 <exit@plt>

00001a0a <rio_readinitb>:
    1a0a:	55                   	push   %ebp
    1a0b:	89 e5                	mov    %esp,%ebp
    1a0d:	e8 7b fa ff ff       	call   148d <__x86.get_pc_thunk.ax>
    1a12:	05 46 35 00 00       	add    $0x3546,%eax
    1a17:	8b 45 08             	mov    0x8(%ebp),%eax
    1a1a:	8b 55 0c             	mov    0xc(%ebp),%edx
    1a1d:	89 10                	mov    %edx,(%eax)
    1a1f:	8b 45 08             	mov    0x8(%ebp),%eax
    1a22:	c7 40 04 00 00 00 00 	movl   $0x0,0x4(%eax)
    1a29:	8b 45 08             	mov    0x8(%ebp),%eax
    1a2c:	8d 50 0c             	lea    0xc(%eax),%edx
    1a2f:	8b 45 08             	mov    0x8(%ebp),%eax
    1a32:	89 50 08             	mov    %edx,0x8(%eax)
    1a35:	90                   	nop
    1a36:	5d                   	pop    %ebp
    1a37:	c3                   	ret    

00001a38 <rio_read>:
    1a38:	55                   	push   %ebp
    1a39:	89 e5                	mov    %esp,%ebp
    1a3b:	53                   	push   %ebx
    1a3c:	83 ec 14             	sub    $0x14,%esp
    1a3f:	e8 0c f1 ff ff       	call   b50 <__x86.get_pc_thunk.bx>
    1a44:	81 c3 14 35 00 00    	add    $0x3514,%ebx
    1a4a:	eb 5f                	jmp    1aab <rio_read+0x73>
    1a4c:	8b 45 08             	mov    0x8(%ebp),%eax
    1a4f:	8d 50 0c             	lea    0xc(%eax),%edx
    1a52:	8b 45 08             	mov    0x8(%ebp),%eax
    1a55:	8b 00                	mov    (%eax),%eax
    1a57:	83 ec 04             	sub    $0x4,%esp
    1a5a:	68 00 20 00 00       	push   $0x2000
    1a5f:	52                   	push   %edx
    1a60:	50                   	push   %eax
    1a61:	e8 ba ee ff ff       	call   920 <read@plt>
    1a66:	83 c4 10             	add    $0x10,%esp
    1a69:	89 c2                	mov    %eax,%edx
    1a6b:	8b 45 08             	mov    0x8(%ebp),%eax
    1a6e:	89 50 04             	mov    %edx,0x4(%eax)
    1a71:	8b 45 08             	mov    0x8(%ebp),%eax
    1a74:	8b 40 04             	mov    0x4(%eax),%eax
    1a77:	85 c0                	test   %eax,%eax
    1a79:	79 13                	jns    1a8e <rio_read+0x56>
    1a7b:	e8 00 f0 ff ff       	call   a80 <__errno_location@plt>
    1a80:	8b 00                	mov    (%eax),%eax
    1a82:	83 f8 04             	cmp    $0x4,%eax
    1a85:	74 24                	je     1aab <rio_read+0x73>
    1a87:	b8 ff ff ff ff       	mov    $0xffffffff,%eax
    1a8c:	eb 7f                	jmp    1b0d <rio_read+0xd5>
    1a8e:	8b 45 08             	mov    0x8(%ebp),%eax
    1a91:	8b 40 04             	mov    0x4(%eax),%eax
    1a94:	85 c0                	test   %eax,%eax
    1a96:	75 07                	jne    1a9f <rio_read+0x67>
    1a98:	b8 00 00 00 00       	mov    $0x0,%eax
    1a9d:	eb 6e                	jmp    1b0d <rio_read+0xd5>
    1a9f:	8b 45 08             	mov    0x8(%ebp),%eax
    1aa2:	8d 50 0c             	lea    0xc(%eax),%edx
    1aa5:	8b 45 08             	mov    0x8(%ebp),%eax
    1aa8:	89 50 08             	mov    %edx,0x8(%eax)
    1aab:	8b 45 08             	mov    0x8(%ebp),%eax
    1aae:	8b 40 04             	mov    0x4(%eax),%eax
    1ab1:	85 c0                	test   %eax,%eax
    1ab3:	7e 97                	jle    1a4c <rio_read+0x14>
    1ab5:	8b 45 10             	mov    0x10(%ebp),%eax
    1ab8:	89 45 f4             	mov    %eax,-0xc(%ebp)
    1abb:	8b 45 08             	mov    0x8(%ebp),%eax
    1abe:	8b 40 04             	mov    0x4(%eax),%eax
    1ac1:	39 45 10             	cmp    %eax,0x10(%ebp)
    1ac4:	76 09                	jbe    1acf <rio_read+0x97>
    1ac6:	8b 45 08             	mov    0x8(%ebp),%eax
    1ac9:	8b 40 04             	mov    0x4(%eax),%eax
    1acc:	89 45 f4             	mov    %eax,-0xc(%ebp)
    1acf:	8b 55 f4             	mov    -0xc(%ebp),%edx
    1ad2:	8b 45 08             	mov    0x8(%ebp),%eax
    1ad5:	8b 40 08             	mov    0x8(%eax),%eax
    1ad8:	83 ec 04             	sub    $0x4,%esp
    1adb:	52                   	push   %edx
    1adc:	50                   	push   %eax
    1add:	ff 75 0c             	pushl  0xc(%ebp)
    1ae0:	e8 6b ee ff ff       	call   950 <memcpy@plt>
    1ae5:	83 c4 10             	add    $0x10,%esp
    1ae8:	8b 45 08             	mov    0x8(%ebp),%eax
    1aeb:	8b 50 08             	mov    0x8(%eax),%edx
    1aee:	8b 45 f4             	mov    -0xc(%ebp),%eax
    1af1:	01 c2                	add    %eax,%edx
    1af3:	8b 45 08             	mov    0x8(%ebp),%eax
    1af6:	89 50 08             	mov    %edx,0x8(%eax)
    1af9:	8b 45 08             	mov    0x8(%ebp),%eax
    1afc:	8b 40 04             	mov    0x4(%eax),%eax
    1aff:	2b 45 f4             	sub    -0xc(%ebp),%eax
    1b02:	89 c2                	mov    %eax,%edx
    1b04:	8b 45 08             	mov    0x8(%ebp),%eax
    1b07:	89 50 04             	mov    %edx,0x4(%eax)
    1b0a:	8b 45 f4             	mov    -0xc(%ebp),%eax
    1b0d:	8b 5d fc             	mov    -0x4(%ebp),%ebx
    1b10:	c9                   	leave  
    1b11:	c3                   	ret    

00001b12 <rio_readlineb>:
    1b12:	55                   	push   %ebp
    1b13:	89 e5                	mov    %esp,%ebp
    1b15:	83 ec 38             	sub    $0x38,%esp
    1b18:	e8 70 f9 ff ff       	call   148d <__x86.get_pc_thunk.ax>
    1b1d:	05 3b 34 00 00       	add    $0x343b,%eax
    1b22:	8b 45 08             	mov    0x8(%ebp),%eax
    1b25:	89 45 d4             	mov    %eax,-0x2c(%ebp)
    1b28:	8b 45 0c             	mov    0xc(%ebp),%eax
    1b2b:	89 45 d0             	mov    %eax,-0x30(%ebp)
    1b2e:	65 a1 14 00 00 00    	mov    %gs:0x14,%eax
    1b34:	89 45 f4             	mov    %eax,-0xc(%ebp)
    1b37:	31 c0                	xor    %eax,%eax
    1b39:	8b 45 d0             	mov    -0x30(%ebp),%eax
    1b3c:	89 45 ec             	mov    %eax,-0x14(%ebp)
    1b3f:	c7 45 e8 01 00 00 00 	movl   $0x1,-0x18(%ebp)
    1b46:	eb 54                	jmp    1b9c <rio_readlineb+0x8a>
    1b48:	83 ec 04             	sub    $0x4,%esp
    1b4b:	6a 01                	push   $0x1
    1b4d:	8d 45 e7             	lea    -0x19(%ebp),%eax
    1b50:	50                   	push   %eax
    1b51:	ff 75 d4             	pushl  -0x2c(%ebp)
    1b54:	e8 df fe ff ff       	call   1a38 <rio_read>
    1b59:	83 c4 10             	add    $0x10,%esp
    1b5c:	89 45 f0             	mov    %eax,-0x10(%ebp)
    1b5f:	83 7d f0 01          	cmpl   $0x1,-0x10(%ebp)
    1b63:	75 19                	jne    1b7e <rio_readlineb+0x6c>
    1b65:	8b 45 ec             	mov    -0x14(%ebp),%eax
    1b68:	8d 50 01             	lea    0x1(%eax),%edx
    1b6b:	89 55 ec             	mov    %edx,-0x14(%ebp)
    1b6e:	0f b6 55 e7          	movzbl -0x19(%ebp),%edx
    1b72:	88 10                	mov    %dl,(%eax)
    1b74:	0f b6 45 e7          	movzbl -0x19(%ebp),%eax
    1b78:	3c 0a                	cmp    $0xa,%al
    1b7a:	75 1c                	jne    1b98 <rio_readlineb+0x86>
    1b7c:	eb 29                	jmp    1ba7 <rio_readlineb+0x95>
    1b7e:	83 7d f0 00          	cmpl   $0x0,-0x10(%ebp)
    1b82:	75 0d                	jne    1b91 <rio_readlineb+0x7f>
    1b84:	83 7d e8 01          	cmpl   $0x1,-0x18(%ebp)
    1b88:	75 1c                	jne    1ba6 <rio_readlineb+0x94>
    1b8a:	b8 00 00 00 00       	mov    $0x0,%eax
    1b8f:	eb 1f                	jmp    1bb0 <rio_readlineb+0x9e>
    1b91:	b8 ff ff ff ff       	mov    $0xffffffff,%eax
    1b96:	eb 18                	jmp    1bb0 <rio_readlineb+0x9e>
    1b98:	83 45 e8 01          	addl   $0x1,-0x18(%ebp)
    1b9c:	8b 45 e8             	mov    -0x18(%ebp),%eax
    1b9f:	39 45 10             	cmp    %eax,0x10(%ebp)
    1ba2:	77 a4                	ja     1b48 <rio_readlineb+0x36>
    1ba4:	eb 01                	jmp    1ba7 <rio_readlineb+0x95>
    1ba6:	90                   	nop
    1ba7:	8b 45 ec             	mov    -0x14(%ebp),%eax
    1baa:	c6 00 00             	movb   $0x0,(%eax)
    1bad:	8b 45 e8             	mov    -0x18(%ebp),%eax
    1bb0:	8b 4d f4             	mov    -0xc(%ebp),%ecx
    1bb3:	65 33 0d 14 00 00 00 	xor    %gs:0x14,%ecx
    1bba:	74 05                	je     1bc1 <rio_readlineb+0xaf>
    1bbc:	e8 2f 0d 00 00       	call   28f0 <__stack_chk_fail_local>
    1bc1:	c9                   	leave  
    1bc2:	c3                   	ret    

00001bc3 <rio_writen>:
    1bc3:	55                   	push   %ebp
    1bc4:	89 e5                	mov    %esp,%ebp
    1bc6:	53                   	push   %ebx
    1bc7:	83 ec 14             	sub    $0x14,%esp
    1bca:	e8 81 ef ff ff       	call   b50 <__x86.get_pc_thunk.bx>
    1bcf:	81 c3 89 33 00 00    	add    $0x3389,%ebx
    1bd5:	8b 45 10             	mov    0x10(%ebp),%eax
    1bd8:	89 45 ec             	mov    %eax,-0x14(%ebp)
    1bdb:	8b 45 0c             	mov    0xc(%ebp),%eax
    1bde:	89 45 f4             	mov    %eax,-0xc(%ebp)
    1be1:	eb 45                	jmp    1c28 <rio_writen+0x65>
    1be3:	83 ec 04             	sub    $0x4,%esp
    1be6:	ff 75 ec             	pushl  -0x14(%ebp)
    1be9:	ff 75 f4             	pushl  -0xc(%ebp)
    1bec:	ff 75 08             	pushl  0x8(%ebp)
    1bef:	e8 5c ee ff ff       	call   a50 <write@plt>
    1bf4:	83 c4 10             	add    $0x10,%esp
    1bf7:	89 45 f0             	mov    %eax,-0x10(%ebp)
    1bfa:	83 7d f0 00          	cmpl   $0x0,-0x10(%ebp)
    1bfe:	7f 1c                	jg     1c1c <rio_writen+0x59>
    1c00:	e8 7b ee ff ff       	call   a80 <__errno_location@plt>
    1c05:	8b 00                	mov    (%eax),%eax
    1c07:	83 f8 04             	cmp    $0x4,%eax
    1c0a:	75 09                	jne    1c15 <rio_writen+0x52>
    1c0c:	c7 45 f0 00 00 00 00 	movl   $0x0,-0x10(%ebp)
    1c13:	eb 07                	jmp    1c1c <rio_writen+0x59>
    1c15:	b8 ff ff ff ff       	mov    $0xffffffff,%eax
    1c1a:	eb 15                	jmp    1c31 <rio_writen+0x6e>
    1c1c:	8b 45 f0             	mov    -0x10(%ebp),%eax
    1c1f:	29 45 ec             	sub    %eax,-0x14(%ebp)
    1c22:	8b 45 f0             	mov    -0x10(%ebp),%eax
    1c25:	01 45 f4             	add    %eax,-0xc(%ebp)
    1c28:	83 7d ec 00          	cmpl   $0x0,-0x14(%ebp)
    1c2c:	75 b5                	jne    1be3 <rio_writen+0x20>
    1c2e:	8b 45 10             	mov    0x10(%ebp),%eax
    1c31:	8b 5d fc             	mov    -0x4(%ebp),%ebx
    1c34:	c9                   	leave  
    1c35:	c3                   	ret    

00001c36 <urlencode>:
    1c36:	55                   	push   %ebp
    1c37:	89 e5                	mov    %esp,%ebp
    1c39:	53                   	push   %ebx
    1c3a:	83 ec 24             	sub    $0x24,%esp
    1c3d:	e8 0e ef ff ff       	call   b50 <__x86.get_pc_thunk.bx>
    1c42:	81 c3 16 33 00 00    	add    $0x3316,%ebx
    1c48:	8b 45 08             	mov    0x8(%ebp),%eax
    1c4b:	89 45 e4             	mov    %eax,-0x1c(%ebp)
    1c4e:	8b 45 0c             	mov    0xc(%ebp),%eax
    1c51:	89 45 e0             	mov    %eax,-0x20(%ebp)
    1c54:	65 a1 14 00 00 00    	mov    %gs:0x14,%eax
    1c5a:	89 45 f4             	mov    %eax,-0xc(%ebp)
    1c5d:	31 c0                	xor    %eax,%eax
    1c5f:	83 ec 0c             	sub    $0xc,%esp
    1c62:	ff 75 e4             	pushl  -0x1c(%ebp)
    1c65:	e8 b6 ed ff ff       	call   a20 <strlen@plt>
    1c6a:	83 c4 10             	add    $0x10,%esp
    1c6d:	89 45 e8             	mov    %eax,-0x18(%ebp)
    1c70:	e9 10 01 00 00       	jmp    1d85 <urlencode+0x14f>
    1c75:	8b 45 e4             	mov    -0x1c(%ebp),%eax
    1c78:	0f b6 00             	movzbl (%eax),%eax
    1c7b:	3c 2a                	cmp    $0x2a,%al
    1c7d:	74 5a                	je     1cd9 <urlencode+0xa3>
    1c7f:	8b 45 e4             	mov    -0x1c(%ebp),%eax
    1c82:	0f b6 00             	movzbl (%eax),%eax
    1c85:	3c 2d                	cmp    $0x2d,%al
    1c87:	74 50                	je     1cd9 <urlencode+0xa3>
    1c89:	8b 45 e4             	mov    -0x1c(%ebp),%eax
    1c8c:	0f b6 00             	movzbl (%eax),%eax
    1c8f:	3c 2e                	cmp    $0x2e,%al
    1c91:	74 46                	je     1cd9 <urlencode+0xa3>
    1c93:	8b 45 e4             	mov    -0x1c(%ebp),%eax
    1c96:	0f b6 00             	movzbl (%eax),%eax
    1c99:	3c 5f                	cmp    $0x5f,%al
    1c9b:	74 3c                	je     1cd9 <urlencode+0xa3>
    1c9d:	8b 45 e4             	mov    -0x1c(%ebp),%eax
    1ca0:	0f b6 00             	movzbl (%eax),%eax
    1ca3:	3c 2f                	cmp    $0x2f,%al
    1ca5:	76 0a                	jbe    1cb1 <urlencode+0x7b>
    1ca7:	8b 45 e4             	mov    -0x1c(%ebp),%eax
    1caa:	0f b6 00             	movzbl (%eax),%eax
    1cad:	3c 39                	cmp    $0x39,%al
    1caf:	76 28                	jbe    1cd9 <urlencode+0xa3>
    1cb1:	8b 45 e4             	mov    -0x1c(%ebp),%eax
    1cb4:	0f b6 00             	movzbl (%eax),%eax
    1cb7:	3c 40                	cmp    $0x40,%al
    1cb9:	76 0a                	jbe    1cc5 <urlencode+0x8f>
    1cbb:	8b 45 e4             	mov    -0x1c(%ebp),%eax
    1cbe:	0f b6 00             	movzbl (%eax),%eax
    1cc1:	3c 5a                	cmp    $0x5a,%al
    1cc3:	76 14                	jbe    1cd9 <urlencode+0xa3>
    1cc5:	8b 45 e4             	mov    -0x1c(%ebp),%eax
    1cc8:	0f b6 00             	movzbl (%eax),%eax
    1ccb:	3c 60                	cmp    $0x60,%al
    1ccd:	76 20                	jbe    1cef <urlencode+0xb9>
    1ccf:	8b 45 e4             	mov    -0x1c(%ebp),%eax
    1cd2:	0f b6 00             	movzbl (%eax),%eax
    1cd5:	3c 7a                	cmp    $0x7a,%al
    1cd7:	77 16                	ja     1cef <urlencode+0xb9>
    1cd9:	8b 45 e0             	mov    -0x20(%ebp),%eax
    1cdc:	8d 50 01             	lea    0x1(%eax),%edx
    1cdf:	89 55 e0             	mov    %edx,-0x20(%ebp)
    1ce2:	8b 55 e4             	mov    -0x1c(%ebp),%edx
    1ce5:	0f b6 12             	movzbl (%edx),%edx
    1ce8:	88 10                	mov    %dl,(%eax)
    1cea:	e9 92 00 00 00       	jmp    1d81 <urlencode+0x14b>
    1cef:	8b 45 e4             	mov    -0x1c(%ebp),%eax
    1cf2:	0f b6 00             	movzbl (%eax),%eax
    1cf5:	3c 20                	cmp    $0x20,%al
    1cf7:	75 0e                	jne    1d07 <urlencode+0xd1>
    1cf9:	8b 45 e0             	mov    -0x20(%ebp),%eax
    1cfc:	8d 50 01             	lea    0x1(%eax),%edx
    1cff:	89 55 e0             	mov    %edx,-0x20(%ebp)
    1d02:	c6 00 2b             	movb   $0x2b,(%eax)
    1d05:	eb 7a                	jmp    1d81 <urlencode+0x14b>
    1d07:	8b 45 e4             	mov    -0x1c(%ebp),%eax
    1d0a:	0f b6 00             	movzbl (%eax),%eax
    1d0d:	3c 1f                	cmp    $0x1f,%al
    1d0f:	76 0a                	jbe    1d1b <urlencode+0xe5>
    1d11:	8b 45 e4             	mov    -0x1c(%ebp),%eax
    1d14:	0f b6 00             	movzbl (%eax),%eax
    1d17:	84 c0                	test   %al,%al
    1d19:	79 0a                	jns    1d25 <urlencode+0xef>
    1d1b:	8b 45 e4             	mov    -0x1c(%ebp),%eax
    1d1e:	0f b6 00             	movzbl (%eax),%eax
    1d21:	3c 09                	cmp    $0x9,%al
    1d23:	75 55                	jne    1d7a <urlencode+0x144>
    1d25:	8b 45 e4             	mov    -0x1c(%ebp),%eax
    1d28:	0f b6 00             	movzbl (%eax),%eax
    1d2b:	0f b6 c0             	movzbl %al,%eax
    1d2e:	83 ec 04             	sub    $0x4,%esp
    1d31:	50                   	push   %eax
    1d32:	8d 83 84 dd ff ff    	lea    -0x227c(%ebx),%eax
    1d38:	50                   	push   %eax
    1d39:	8d 45 ec             	lea    -0x14(%ebp),%eax
    1d3c:	50                   	push   %eax
    1d3d:	e8 4e ed ff ff       	call   a90 <sprintf@plt>
    1d42:	83 c4 10             	add    $0x10,%esp
    1d45:	0f b6 4d ec          	movzbl -0x14(%ebp),%ecx
    1d49:	8b 45 e0             	mov    -0x20(%ebp),%eax
    1d4c:	8d 50 01             	lea    0x1(%eax),%edx
    1d4f:	89 55 e0             	mov    %edx,-0x20(%ebp)
    1d52:	89 ca                	mov    %ecx,%edx
    1d54:	88 10                	mov    %dl,(%eax)
    1d56:	0f b6 4d ed          	movzbl -0x13(%ebp),%ecx
    1d5a:	8b 45 e0             	mov    -0x20(%ebp),%eax
    1d5d:	8d 50 01             	lea    0x1(%eax),%edx
    1d60:	89 55 e0             	mov    %edx,-0x20(%ebp)
    1d63:	89 ca                	mov    %ecx,%edx
    1d65:	88 10                	mov    %dl,(%eax)
    1d67:	0f b6 4d ee          	movzbl -0x12(%ebp),%ecx
    1d6b:	8b 45 e0             	mov    -0x20(%ebp),%eax
    1d6e:	8d 50 01             	lea    0x1(%eax),%edx
    1d71:	89 55 e0             	mov    %edx,-0x20(%ebp)
    1d74:	89 ca                	mov    %ecx,%edx
    1d76:	88 10                	mov    %dl,(%eax)
    1d78:	eb 07                	jmp    1d81 <urlencode+0x14b>
    1d7a:	b8 ff ff ff ff       	mov    $0xffffffff,%eax
    1d7f:	eb 1a                	jmp    1d9b <urlencode+0x165>
    1d81:	83 45 e4 01          	addl   $0x1,-0x1c(%ebp)
    1d85:	8b 45 e8             	mov    -0x18(%ebp),%eax
    1d88:	8d 50 ff             	lea    -0x1(%eax),%edx
    1d8b:	89 55 e8             	mov    %edx,-0x18(%ebp)
    1d8e:	85 c0                	test   %eax,%eax
    1d90:	0f 85 df fe ff ff    	jne    1c75 <urlencode+0x3f>
    1d96:	b8 00 00 00 00       	mov    $0x0,%eax
    1d9b:	8b 4d f4             	mov    -0xc(%ebp),%ecx
    1d9e:	65 33 0d 14 00 00 00 	xor    %gs:0x14,%ecx
    1da5:	74 05                	je     1dac <urlencode+0x176>
    1da7:	e8 44 0b 00 00       	call   28f0 <__stack_chk_fail_local>
    1dac:	8b 5d fc             	mov    -0x4(%ebp),%ebx
    1daf:	c9                   	leave  
    1db0:	c3                   	ret    

00001db1 <submitr>:
    1db1:	55                   	push   %ebp
    1db2:	89 e5                	mov    %esp,%ebp
    1db4:	57                   	push   %edi
    1db5:	56                   	push   %esi
    1db6:	53                   	push   %ebx
    1db7:	81 ec 6c a0 00 00    	sub    $0xa06c,%esp
    1dbd:	e8 8e ed ff ff       	call   b50 <__x86.get_pc_thunk.bx>
    1dc2:	81 c3 96 31 00 00    	add    $0x3196,%ebx
    1dc8:	8b 45 08             	mov    0x8(%ebp),%eax
    1dcb:	89 85 a4 5f ff ff    	mov    %eax,-0xa05c(%ebp)
    1dd1:	8b 45 10             	mov    0x10(%ebp),%eax
    1dd4:	89 85 a0 5f ff ff    	mov    %eax,-0xa060(%ebp)
    1dda:	8b 45 14             	mov    0x14(%ebp),%eax
    1ddd:	89 85 9c 5f ff ff    	mov    %eax,-0xa064(%ebp)
    1de3:	8b 45 18             	mov    0x18(%ebp),%eax
    1de6:	89 85 98 5f ff ff    	mov    %eax,-0xa068(%ebp)
    1dec:	8b 45 1c             	mov    0x1c(%ebp),%eax
    1def:	89 85 94 5f ff ff    	mov    %eax,-0xa06c(%ebp)
    1df5:	8b 45 20             	mov    0x20(%ebp),%eax
    1df8:	89 85 90 5f ff ff    	mov    %eax,-0xa070(%ebp)
    1dfe:	8b 45 24             	mov    0x24(%ebp),%eax
    1e01:	89 85 8c 5f ff ff    	mov    %eax,-0xa074(%ebp)
    1e07:	65 a1 14 00 00 00    	mov    %gs:0x14,%eax
    1e0d:	89 45 e4             	mov    %eax,-0x1c(%ebp)
    1e10:	31 c0                	xor    %eax,%eax
    1e12:	c7 85 b4 5f ff ff 00 	movl   $0x0,-0xa04c(%ebp)
    1e19:	00 00 00 
    1e1c:	83 ec 04             	sub    $0x4,%esp
    1e1f:	6a 00                	push   $0x0
    1e21:	6a 01                	push   $0x1
    1e23:	6a 02                	push   $0x2
    1e25:	e8 86 ec ff ff       	call   ab0 <socket@plt>
    1e2a:	83 c4 10             	add    $0x10,%esp
    1e2d:	89 85 b8 5f ff ff    	mov    %eax,-0xa048(%ebp)
    1e33:	83 bd b8 5f ff ff 00 	cmpl   $0x0,-0xa048(%ebp)
    1e3a:	79 54                	jns    1e90 <submitr+0xdf>
    1e3c:	8b 85 8c 5f ff ff    	mov    -0xa074(%ebp),%eax
    1e42:	c7 00 45 72 72 6f    	movl   $0x6f727245,(%eax)
    1e48:	c7 40 04 72 3a 20 43 	movl   $0x43203a72,0x4(%eax)
    1e4f:	c7 40 08 6c 69 65 6e 	movl   $0x6e65696c,0x8(%eax)
    1e56:	c7 40 0c 74 20 75 6e 	movl   $0x6e752074,0xc(%eax)
    1e5d:	c7 40 10 61 62 6c 65 	movl   $0x656c6261,0x10(%eax)
    1e64:	c7 40 14 20 74 6f 20 	movl   $0x206f7420,0x14(%eax)
    1e6b:	c7 40 18 63 72 65 61 	movl   $0x61657263,0x18(%eax)
    1e72:	c7 40 1c 74 65 20 73 	movl   $0x73206574,0x1c(%eax)
    1e79:	c7 40 20 6f 63 6b 65 	movl   $0x656b636f,0x20(%eax)
    1e80:	66 c7 40 24 74 00    	movw   $0x74,0x24(%eax)
    1e86:	b8 ff ff ff ff       	mov    $0xffffffff,%eax
    1e8b:	e9 bf 06 00 00       	jmp    254f <submitr+0x79e>
    1e90:	83 ec 0c             	sub    $0xc,%esp
    1e93:	ff b5 a4 5f ff ff    	pushl  -0xa05c(%ebp)
    1e99:	e8 22 ec ff ff       	call   ac0 <gethostbyname@plt>
    1e9e:	83 c4 10             	add    $0x10,%esp
    1ea1:	89 85 bc 5f ff ff    	mov    %eax,-0xa044(%ebp)
    1ea7:	83 bd bc 5f ff ff 00 	cmpl   $0x0,-0xa044(%ebp)
    1eae:	75 77                	jne    1f27 <submitr+0x176>
    1eb0:	8b 85 8c 5f ff ff    	mov    -0xa074(%ebp),%eax
    1eb6:	c7 00 45 72 72 6f    	movl   $0x6f727245,(%eax)
    1ebc:	c7 40 04 72 3a 20 44 	movl   $0x44203a72,0x4(%eax)
    1ec3:	c7 40 08 4e 53 20 69 	movl   $0x6920534e,0x8(%eax)
    1eca:	c7 40 0c 73 20 75 6e 	movl   $0x6e752073,0xc(%eax)
    1ed1:	c7 40 10 61 62 6c 65 	movl   $0x656c6261,0x10(%eax)
    1ed8:	c7 40 14 20 74 6f 20 	movl   $0x206f7420,0x14(%eax)
    1edf:	c7 40 18 72 65 73 6f 	movl   $0x6f736572,0x18(%eax)
    1ee6:	c7 40 1c 6c 76 65 20 	movl   $0x2065766c,0x1c(%eax)
    1eed:	c7 40 20 73 65 72 76 	movl   $0x76726573,0x20(%eax)
    1ef4:	c7 40 24 65 72 20 61 	movl   $0x61207265,0x24(%eax)
    1efb:	c7 40 28 64 64 72 65 	movl   $0x65726464,0x28(%eax)
    1f02:	66 c7 40 2c 73 73    	movw   $0x7373,0x2c(%eax)
    1f08:	c6 40 2e 00          	movb   $0x0,0x2e(%eax)
    1f0c:	83 ec 0c             	sub    $0xc,%esp
    1f0f:	ff b5 b8 5f ff ff    	pushl  -0xa048(%ebp)
    1f15:	e8 c6 eb ff ff       	call   ae0 <close@plt>
    1f1a:	83 c4 10             	add    $0x10,%esp
    1f1d:	b8 ff ff ff ff       	mov    $0xffffffff,%eax
    1f22:	e9 28 06 00 00       	jmp    254f <submitr+0x79e>
    1f27:	83 ec 08             	sub    $0x8,%esp
    1f2a:	6a 10                	push   $0x10
    1f2c:	8d 85 c8 5f ff ff    	lea    -0xa038(%ebp),%eax
    1f32:	50                   	push   %eax
    1f33:	e8 28 ea ff ff       	call   960 <bzero@plt>
    1f38:	83 c4 10             	add    $0x10,%esp
    1f3b:	66 c7 85 c8 5f ff ff 	movw   $0x2,-0xa038(%ebp)
    1f42:	02 00 
    1f44:	8b 85 bc 5f ff ff    	mov    -0xa044(%ebp),%eax
    1f4a:	8b 40 0c             	mov    0xc(%eax),%eax
    1f4d:	89 c2                	mov    %eax,%edx
    1f4f:	8b 85 bc 5f ff ff    	mov    -0xa044(%ebp),%eax
    1f55:	8b 40 10             	mov    0x10(%eax),%eax
    1f58:	8b 00                	mov    (%eax),%eax
    1f5a:	83 ec 04             	sub    $0x4,%esp
    1f5d:	52                   	push   %edx
    1f5e:	8d 95 c8 5f ff ff    	lea    -0xa038(%ebp),%edx
    1f64:	83 c2 04             	add    $0x4,%edx
    1f67:	52                   	push   %edx
    1f68:	50                   	push   %eax
    1f69:	e8 62 ea ff ff       	call   9d0 <bcopy@plt>
    1f6e:	83 c4 10             	add    $0x10,%esp
    1f71:	8b 45 0c             	mov    0xc(%ebp),%eax
    1f74:	0f b7 c0             	movzwl %ax,%eax
    1f77:	83 ec 0c             	sub    $0xc,%esp
    1f7a:	50                   	push   %eax
    1f7b:	e8 40 ea ff ff       	call   9c0 <htons@plt>
    1f80:	83 c4 10             	add    $0x10,%esp
    1f83:	66 89 85 ca 5f ff ff 	mov    %ax,-0xa036(%ebp)
    1f8a:	83 ec 04             	sub    $0x4,%esp
    1f8d:	6a 10                	push   $0x10
    1f8f:	8d 85 c8 5f ff ff    	lea    -0xa038(%ebp),%eax
    1f95:	50                   	push   %eax
    1f96:	ff b5 b8 5f ff ff    	pushl  -0xa048(%ebp)
    1f9c:	e8 2f eb ff ff       	call   ad0 <connect@plt>
    1fa1:	83 c4 10             	add    $0x10,%esp
    1fa4:	85 c0                	test   %eax,%eax
    1fa6:	79 69                	jns    2011 <submitr+0x260>
    1fa8:	8b 85 8c 5f ff ff    	mov    -0xa074(%ebp),%eax
    1fae:	c7 00 45 72 72 6f    	movl   $0x6f727245,(%eax)
    1fb4:	c7 40 04 72 3a 20 55 	movl   $0x55203a72,0x4(%eax)
    1fbb:	c7 40 08 6e 61 62 6c 	movl   $0x6c62616e,0x8(%eax)
    1fc2:	c7 40 0c 65 20 74 6f 	movl   $0x6f742065,0xc(%eax)
    1fc9:	c7 40 10 20 63 6f 6e 	movl   $0x6e6f6320,0x10(%eax)
    1fd0:	c7 40 14 6e 65 63 74 	movl   $0x7463656e,0x14(%eax)
    1fd7:	c7 40 18 20 74 6f 20 	movl   $0x206f7420,0x18(%eax)
    1fde:	c7 40 1c 74 68 65 20 	movl   $0x20656874,0x1c(%eax)
    1fe5:	c7 40 20 73 65 72 76 	movl   $0x76726573,0x20(%eax)
    1fec:	66 c7 40 24 65 72    	movw   $0x7265,0x24(%eax)
    1ff2:	c6 40 26 00          	movb   $0x0,0x26(%eax)
    1ff6:	83 ec 0c             	sub    $0xc,%esp
    1ff9:	ff b5 b8 5f ff ff    	pushl  -0xa048(%ebp)
    1fff:	e8 dc ea ff ff       	call   ae0 <close@plt>
    2004:	83 c4 10             	add    $0x10,%esp
    2007:	b8 ff ff ff ff       	mov    $0xffffffff,%eax
    200c:	e9 3e 05 00 00       	jmp    254f <submitr+0x79e>
    2011:	83 ec 0c             	sub    $0xc,%esp
    2014:	ff b5 90 5f ff ff    	pushl  -0xa070(%ebp)
    201a:	e8 01 ea ff ff       	call   a20 <strlen@plt>
    201f:	83 c4 10             	add    $0x10,%esp
    2022:	89 85 c0 5f ff ff    	mov    %eax,-0xa040(%ebp)
    2028:	83 ec 0c             	sub    $0xc,%esp
    202b:	ff b5 a0 5f ff ff    	pushl  -0xa060(%ebp)
    2031:	e8 ea e9 ff ff       	call   a20 <strlen@plt>
    2036:	83 c4 10             	add    $0x10,%esp
    2039:	89 c6                	mov    %eax,%esi
    203b:	83 ec 0c             	sub    $0xc,%esp
    203e:	ff b5 9c 5f ff ff    	pushl  -0xa064(%ebp)
    2044:	e8 d7 e9 ff ff       	call   a20 <strlen@plt>
    2049:	83 c4 10             	add    $0x10,%esp
    204c:	01 c6                	add    %eax,%esi
    204e:	83 ec 0c             	sub    $0xc,%esp
    2051:	ff b5 94 5f ff ff    	pushl  -0xa06c(%ebp)
    2057:	e8 c4 e9 ff ff       	call   a20 <strlen@plt>
    205c:	83 c4 10             	add    $0x10,%esp
    205f:	8d 0c 06             	lea    (%esi,%eax,1),%ecx
    2062:	8b 95 c0 5f ff ff    	mov    -0xa040(%ebp),%edx
    2068:	89 d0                	mov    %edx,%eax
    206a:	01 c0                	add    %eax,%eax
    206c:	01 d0                	add    %edx,%eax
    206e:	01 c8                	add    %ecx,%eax
    2070:	83 e8 80             	sub    $0xffffff80,%eax
    2073:	89 85 c4 5f ff ff    	mov    %eax,-0xa03c(%ebp)
    2079:	81 bd c4 5f ff ff 00 	cmpl   $0x2000,-0xa03c(%ebp)
    2080:	20 00 00 
    2083:	0f 86 82 00 00 00    	jbe    210b <submitr+0x35a>
    2089:	8b 85 8c 5f ff ff    	mov    -0xa074(%ebp),%eax
    208f:	c7 00 45 72 72 6f    	movl   $0x6f727245,(%eax)
    2095:	c7 40 04 72 3a 20 52 	movl   $0x52203a72,0x4(%eax)
    209c:	c7 40 08 65 73 75 6c 	movl   $0x6c757365,0x8(%eax)
    20a3:	c7 40 0c 74 20 73 74 	movl   $0x74732074,0xc(%eax)
    20aa:	c7 40 10 72 69 6e 67 	movl   $0x676e6972,0x10(%eax)
    20b1:	c7 40 14 20 74 6f 6f 	movl   $0x6f6f7420,0x14(%eax)
    20b8:	c7 40 18 20 6c 61 72 	movl   $0x72616c20,0x18(%eax)
    20bf:	c7 40 1c 67 65 2e 20 	movl   $0x202e6567,0x1c(%eax)
    20c6:	c7 40 20 49 6e 63 72 	movl   $0x72636e49,0x20(%eax)
    20cd:	c7 40 24 65 61 73 65 	movl   $0x65736165,0x24(%eax)
    20d4:	c7 40 28 20 53 55 42 	movl   $0x42555320,0x28(%eax)
    20db:	c7 40 2c 4d 49 54 52 	movl   $0x5254494d,0x2c(%eax)
    20e2:	c7 40 30 5f 4d 41 58 	movl   $0x58414d5f,0x30(%eax)
    20e9:	c7 40 34 42 55 46 00 	movl   $0x465542,0x34(%eax)
    20f0:	83 ec 0c             	sub    $0xc,%esp
    20f3:	ff b5 b8 5f ff ff    	pushl  -0xa048(%ebp)
    20f9:	e8 e2 e9 ff ff       	call   ae0 <close@plt>
    20fe:	83 c4 10             	add    $0x10,%esp
    2101:	b8 ff ff ff ff       	mov    $0xffffffff,%eax
    2106:	e9 44 04 00 00       	jmp    254f <submitr+0x79e>
    210b:	83 ec 08             	sub    $0x8,%esp
    210e:	68 00 20 00 00       	push   $0x2000
    2113:	8d 85 e4 9f ff ff    	lea    -0x601c(%ebp),%eax
    2119:	50                   	push   %eax
    211a:	e8 41 e8 ff ff       	call   960 <bzero@plt>
    211f:	83 c4 10             	add    $0x10,%esp
    2122:	83 ec 08             	sub    $0x8,%esp
    2125:	8d 85 e4 9f ff ff    	lea    -0x601c(%ebp),%eax
    212b:	50                   	push   %eax
    212c:	ff b5 90 5f ff ff    	pushl  -0xa070(%ebp)
    2132:	e8 ff fa ff ff       	call   1c36 <urlencode>
    2137:	83 c4 10             	add    $0x10,%esp
    213a:	85 c0                	test   %eax,%eax
    213c:	79 54                	jns    2192 <submitr+0x3e1>
    213e:	8b 85 8c 5f ff ff    	mov    -0xa074(%ebp),%eax
    2144:	89 c2                	mov    %eax,%edx
    2146:	8d 83 8c dd ff ff    	lea    -0x2274(%ebx),%eax
    214c:	b9 43 00 00 00       	mov    $0x43,%ecx
    2151:	8b 30                	mov    (%eax),%esi
    2153:	89 32                	mov    %esi,(%edx)
    2155:	8b 74 08 fc          	mov    -0x4(%eax,%ecx,1),%esi
    2159:	89 74 0a fc          	mov    %esi,-0x4(%edx,%ecx,1)
    215d:	8d 7a 04             	lea    0x4(%edx),%edi
    2160:	83 e7 fc             	and    $0xfffffffc,%edi
    2163:	29 fa                	sub    %edi,%edx
    2165:	29 d0                	sub    %edx,%eax
    2167:	01 d1                	add    %edx,%ecx
    2169:	83 e1 fc             	and    $0xfffffffc,%ecx
    216c:	c1 e9 02             	shr    $0x2,%ecx
    216f:	89 ca                	mov    %ecx,%edx
    2171:	89 c6                	mov    %eax,%esi
    2173:	89 d1                	mov    %edx,%ecx
    2175:	f3 a5                	rep movsl %ds:(%esi),%es:(%edi)
    2177:	83 ec 0c             	sub    $0xc,%esp
    217a:	ff b5 b8 5f ff ff    	pushl  -0xa048(%ebp)
    2180:	e8 5b e9 ff ff       	call   ae0 <close@plt>
    2185:	83 c4 10             	add    $0x10,%esp
    2188:	b8 ff ff ff ff       	mov    $0xffffffff,%eax
    218d:	e9 bd 03 00 00       	jmp    254f <submitr+0x79e>
    2192:	83 ec 04             	sub    $0x4,%esp
    2195:	8d 85 e4 9f ff ff    	lea    -0x601c(%ebp),%eax
    219b:	50                   	push   %eax
    219c:	ff b5 94 5f ff ff    	pushl  -0xa06c(%ebp)
    21a2:	ff b5 98 5f ff ff    	pushl  -0xa068(%ebp)
    21a8:	ff b5 9c 5f ff ff    	pushl  -0xa064(%ebp)
    21ae:	ff b5 a0 5f ff ff    	pushl  -0xa060(%ebp)
    21b4:	8d 83 d0 dd ff ff    	lea    -0x2230(%ebx),%eax
    21ba:	50                   	push   %eax
    21bb:	8d 85 e4 7f ff ff    	lea    -0x801c(%ebp),%eax
    21c1:	50                   	push   %eax
    21c2:	e8 c9 e8 ff ff       	call   a90 <sprintf@plt>
    21c7:	83 c4 20             	add    $0x20,%esp
    21ca:	83 ec 0c             	sub    $0xc,%esp
    21cd:	8d 85 e4 7f ff ff    	lea    -0x801c(%ebp),%eax
    21d3:	50                   	push   %eax
    21d4:	e8 47 e8 ff ff       	call   a20 <strlen@plt>
    21d9:	83 c4 10             	add    $0x10,%esp
    21dc:	83 ec 04             	sub    $0x4,%esp
    21df:	50                   	push   %eax
    21e0:	8d 85 e4 7f ff ff    	lea    -0x801c(%ebp),%eax
    21e6:	50                   	push   %eax
    21e7:	ff b5 b8 5f ff ff    	pushl  -0xa048(%ebp)
    21ed:	e8 d1 f9 ff ff       	call   1bc3 <rio_writen>
    21f2:	83 c4 10             	add    $0x10,%esp
    21f5:	85 c0                	test   %eax,%eax
    21f7:	79 6d                	jns    2266 <submitr+0x4b5>
    21f9:	8b 85 8c 5f ff ff    	mov    -0xa074(%ebp),%eax
    21ff:	c7 00 45 72 72 6f    	movl   $0x6f727245,(%eax)
    2205:	c7 40 04 72 3a 20 43 	movl   $0x43203a72,0x4(%eax)
    220c:	c7 40 08 6c 69 65 6e 	movl   $0x6e65696c,0x8(%eax)
    2213:	c7 40 0c 74 20 75 6e 	movl   $0x6e752074,0xc(%eax)
    221a:	c7 40 10 61 62 6c 65 	movl   $0x656c6261,0x10(%eax)
    2221:	c7 40 14 20 74 6f 20 	movl   $0x206f7420,0x14(%eax)
    2228:	c7 40 18 77 72 69 74 	movl   $0x74697277,0x18(%eax)
    222f:	c7 40 1c 65 20 74 6f 	movl   $0x6f742065,0x1c(%eax)
    2236:	c7 40 20 20 74 68 65 	movl   $0x65687420,0x20(%eax)
    223d:	c7 40 24 20 73 65 72 	movl   $0x72657320,0x24(%eax)
    2244:	c7 40 28 76 65 72 00 	movl   $0x726576,0x28(%eax)
    224b:	83 ec 0c             	sub    $0xc,%esp
    224e:	ff b5 b8 5f ff ff    	pushl  -0xa048(%ebp)
    2254:	e8 87 e8 ff ff       	call   ae0 <close@plt>
    2259:	83 c4 10             	add    $0x10,%esp
    225c:	b8 ff ff ff ff       	mov    $0xffffffff,%eax
    2261:	e9 e9 02 00 00       	jmp    254f <submitr+0x79e>
    2266:	83 ec 08             	sub    $0x8,%esp
    2269:	ff b5 b8 5f ff ff    	pushl  -0xa048(%ebp)
    226f:	8d 85 d8 5f ff ff    	lea    -0xa028(%ebp),%eax
    2275:	50                   	push   %eax
    2276:	e8 8f f7 ff ff       	call   1a0a <rio_readinitb>
    227b:	83 c4 10             	add    $0x10,%esp
    227e:	83 ec 04             	sub    $0x4,%esp
    2281:	68 00 20 00 00       	push   $0x2000
    2286:	8d 85 e4 7f ff ff    	lea    -0x801c(%ebp),%eax
    228c:	50                   	push   %eax
    228d:	8d 85 d8 5f ff ff    	lea    -0xa028(%ebp),%eax
    2293:	50                   	push   %eax
    2294:	e8 79 f8 ff ff       	call   1b12 <rio_readlineb>
    2299:	83 c4 10             	add    $0x10,%esp
    229c:	85 c0                	test   %eax,%eax
    229e:	0f 8f 81 00 00 00    	jg     2325 <submitr+0x574>
    22a4:	8b 85 8c 5f ff ff    	mov    -0xa074(%ebp),%eax
    22aa:	c7 00 45 72 72 6f    	movl   $0x6f727245,(%eax)
    22b0:	c7 40 04 72 3a 20 43 	movl   $0x43203a72,0x4(%eax)
    22b7:	c7 40 08 6c 69 65 6e 	movl   $0x6e65696c,0x8(%eax)
    22be:	c7 40 0c 74 20 75 6e 	movl   $0x6e752074,0xc(%eax)
    22c5:	c7 40 10 61 62 6c 65 	movl   $0x656c6261,0x10(%eax)
    22cc:	c7 40 14 20 74 6f 20 	movl   $0x206f7420,0x14(%eax)
    22d3:	c7 40 18 72 65 61 64 	movl   $0x64616572,0x18(%eax)
    22da:	c7 40 1c 20 66 69 72 	movl   $0x72696620,0x1c(%eax)
    22e1:	c7 40 20 73 74 20 68 	movl   $0x68207473,0x20(%eax)
    22e8:	c7 40 24 65 61 64 65 	movl   $0x65646165,0x24(%eax)
    22ef:	c7 40 28 72 20 66 72 	movl   $0x72662072,0x28(%eax)
    22f6:	c7 40 2c 6f 6d 20 73 	movl   $0x73206d6f,0x2c(%eax)
    22fd:	c7 40 30 65 72 76 65 	movl   $0x65767265,0x30(%eax)
    2304:	66 c7 40 34 72 00    	movw   $0x72,0x34(%eax)
    230a:	83 ec 0c             	sub    $0xc,%esp
    230d:	ff b5 b8 5f ff ff    	pushl  -0xa048(%ebp)
    2313:	e8 c8 e7 ff ff       	call   ae0 <close@plt>
    2318:	83 c4 10             	add    $0x10,%esp
    231b:	b8 ff ff ff ff       	mov    $0xffffffff,%eax
    2320:	e9 2a 02 00 00       	jmp    254f <submitr+0x79e>
    2325:	83 ec 0c             	sub    $0xc,%esp
    2328:	8d 85 e4 df ff ff    	lea    -0x201c(%ebp),%eax
    232e:	50                   	push   %eax
    232f:	8d 85 b4 5f ff ff    	lea    -0xa04c(%ebp),%eax
    2335:	50                   	push   %eax
    2336:	8d 85 e4 bf ff ff    	lea    -0x401c(%ebp),%eax
    233c:	50                   	push   %eax
    233d:	8d 83 25 de ff ff    	lea    -0x21db(%ebx),%eax
    2343:	50                   	push   %eax
    2344:	8d 85 e4 7f ff ff    	lea    -0x801c(%ebp),%eax
    234a:	50                   	push   %eax
    234b:	e8 10 e7 ff ff       	call   a60 <__isoc99_sscanf@plt>
    2350:	83 c4 20             	add    $0x20,%esp
    2353:	8b 85 b4 5f ff ff    	mov    -0xa04c(%ebp),%eax
    2359:	3d c8 00 00 00       	cmp    $0xc8,%eax
    235e:	0f 84 d8 00 00 00    	je     243c <submitr+0x68b>
    2364:	8b 85 b4 5f ff ff    	mov    -0xa04c(%ebp),%eax
    236a:	8d 95 e4 df ff ff    	lea    -0x201c(%ebp),%edx
    2370:	52                   	push   %edx
    2371:	50                   	push   %eax
    2372:	8d 83 38 de ff ff    	lea    -0x21c8(%ebx),%eax
    2378:	50                   	push   %eax
    2379:	ff b5 8c 5f ff ff    	pushl  -0xa074(%ebp)
    237f:	e8 0c e7 ff ff       	call   a90 <sprintf@plt>
    2384:	83 c4 10             	add    $0x10,%esp
    2387:	83 ec 0c             	sub    $0xc,%esp
    238a:	ff b5 b8 5f ff ff    	pushl  -0xa048(%ebp)
    2390:	e8 4b e7 ff ff       	call   ae0 <close@plt>
    2395:	83 c4 10             	add    $0x10,%esp
    2398:	b8 ff ff ff ff       	mov    $0xffffffff,%eax
    239d:	e9 ad 01 00 00       	jmp    254f <submitr+0x79e>
    23a2:	83 ec 04             	sub    $0x4,%esp
    23a5:	68 00 20 00 00       	push   $0x2000
    23aa:	8d 85 e4 7f ff ff    	lea    -0x801c(%ebp),%eax
    23b0:	50                   	push   %eax
    23b1:	8d 85 d8 5f ff ff    	lea    -0xa028(%ebp),%eax
    23b7:	50                   	push   %eax
    23b8:	e8 55 f7 ff ff       	call   1b12 <rio_readlineb>
    23bd:	83 c4 10             	add    $0x10,%esp
    23c0:	85 c0                	test   %eax,%eax
    23c2:	7f 78                	jg     243c <submitr+0x68b>
    23c4:	8b 85 8c 5f ff ff    	mov    -0xa074(%ebp),%eax
    23ca:	c7 00 45 72 72 6f    	movl   $0x6f727245,(%eax)
    23d0:	c7 40 04 72 3a 20 43 	movl   $0x43203a72,0x4(%eax)
    23d7:	c7 40 08 6c 69 65 6e 	movl   $0x6e65696c,0x8(%eax)
    23de:	c7 40 0c 74 20 75 6e 	movl   $0x6e752074,0xc(%eax)
    23e5:	c7 40 10 61 62 6c 65 	movl   $0x656c6261,0x10(%eax)
    23ec:	c7 40 14 20 74 6f 20 	movl   $0x206f7420,0x14(%eax)
    23f3:	c7 40 18 72 65 61 64 	movl   $0x64616572,0x18(%eax)
    23fa:	c7 40 1c 20 68 65 61 	movl   $0x61656820,0x1c(%eax)
    2401:	c7 40 20 64 65 72 73 	movl   $0x73726564,0x20(%eax)
    2408:	c7 40 24 20 66 72 6f 	movl   $0x6f726620,0x24(%eax)
    240f:	c7 40 28 6d 20 73 65 	movl   $0x6573206d,0x28(%eax)
    2416:	c7 40 2c 72 76 65 72 	movl   $0x72657672,0x2c(%eax)
    241d:	c6 40 30 00          	movb   $0x0,0x30(%eax)
    2421:	83 ec 0c             	sub    $0xc,%esp
    2424:	ff b5 b8 5f ff ff    	pushl  -0xa048(%ebp)
    242a:	e8 b1 e6 ff ff       	call   ae0 <close@plt>
    242f:	83 c4 10             	add    $0x10,%esp
    2432:	b8 ff ff ff ff       	mov    $0xffffffff,%eax
    2437:	e9 13 01 00 00       	jmp    254f <submitr+0x79e>
    243c:	83 ec 08             	sub    $0x8,%esp
    243f:	8d 83 65 de ff ff    	lea    -0x219b(%ebx),%eax
    2445:	50                   	push   %eax
    2446:	8d 85 e4 7f ff ff    	lea    -0x801c(%ebp),%eax
    244c:	50                   	push   %eax
    244d:	e8 be e4 ff ff       	call   910 <strcmp@plt>
    2452:	83 c4 10             	add    $0x10,%esp
    2455:	85 c0                	test   %eax,%eax
    2457:	0f 85 45 ff ff ff    	jne    23a2 <submitr+0x5f1>
    245d:	83 ec 04             	sub    $0x4,%esp
    2460:	68 00 20 00 00       	push   $0x2000
    2465:	8d 85 e4 7f ff ff    	lea    -0x801c(%ebp),%eax
    246b:	50                   	push   %eax
    246c:	8d 85 d8 5f ff ff    	lea    -0xa028(%ebp),%eax
    2472:	50                   	push   %eax
    2473:	e8 9a f6 ff ff       	call   1b12 <rio_readlineb>
    2478:	83 c4 10             	add    $0x10,%esp
    247b:	85 c0                	test   %eax,%eax
    247d:	7f 7f                	jg     24fe <submitr+0x74d>
    247f:	8b 85 8c 5f ff ff    	mov    -0xa074(%ebp),%eax
    2485:	c7 00 45 72 72 6f    	movl   $0x6f727245,(%eax)
    248b:	c7 40 04 72 3a 20 43 	movl   $0x43203a72,0x4(%eax)
    2492:	c7 40 08 6c 69 65 6e 	movl   $0x6e65696c,0x8(%eax)
    2499:	c7 40 0c 74 20 75 6e 	movl   $0x6e752074,0xc(%eax)
    24a0:	c7 40 10 61 62 6c 65 	movl   $0x656c6261,0x10(%eax)
    24a7:	c7 40 14 20 74 6f 20 	movl   $0x206f7420,0x14(%eax)
    24ae:	c7 40 18 72 65 61 64 	movl   $0x64616572,0x18(%eax)
    24b5:	c7 40 1c 20 73 74 61 	movl   $0x61747320,0x1c(%eax)
    24bc:	c7 40 20 74 75 73 20 	movl   $0x20737574,0x20(%eax)
    24c3:	c7 40 24 6d 65 73 73 	movl   $0x7373656d,0x24(%eax)
    24ca:	c7 40 28 61 67 65 20 	movl   $0x20656761,0x28(%eax)
    24d1:	c7 40 2c 66 72 6f 6d 	movl   $0x6d6f7266,0x2c(%eax)
    24d8:	c7 40 30 20 73 65 72 	movl   $0x72657320,0x30(%eax)
    24df:	c7 40 34 76 65 72 00 	movl   $0x726576,0x34(%eax)
    24e6:	83 ec 0c             	sub    $0xc,%esp
    24e9:	ff b5 b8 5f ff ff    	pushl  -0xa048(%ebp)
    24ef:	e8 ec e5 ff ff       	call   ae0 <close@plt>
    24f4:	83 c4 10             	add    $0x10,%esp
    24f7:	b8 ff ff ff ff       	mov    $0xffffffff,%eax
    24fc:	eb 51                	jmp    254f <submitr+0x79e>
    24fe:	83 ec 08             	sub    $0x8,%esp
    2501:	8d 85 e4 7f ff ff    	lea    -0x801c(%ebp),%eax
    2507:	50                   	push   %eax
    2508:	ff b5 8c 5f ff ff    	pushl  -0xa074(%ebp)
    250e:	e8 cd e4 ff ff       	call   9e0 <strcpy@plt>
    2513:	83 c4 10             	add    $0x10,%esp
    2516:	83 ec 0c             	sub    $0xc,%esp
    2519:	ff b5 b8 5f ff ff    	pushl  -0xa048(%ebp)
    251f:	e8 bc e5 ff ff       	call   ae0 <close@plt>
    2524:	83 c4 10             	add    $0x10,%esp
    2527:	83 ec 08             	sub    $0x8,%esp
    252a:	8d 83 68 de ff ff    	lea    -0x2198(%ebx),%eax
    2530:	50                   	push   %eax
    2531:	ff b5 8c 5f ff ff    	pushl  -0xa074(%ebp)
    2537:	e8 d4 e3 ff ff       	call   910 <strcmp@plt>
    253c:	83 c4 10             	add    $0x10,%esp
    253f:	85 c0                	test   %eax,%eax
    2541:	75 07                	jne    254a <submitr+0x799>
    2543:	b8 00 00 00 00       	mov    $0x0,%eax
    2548:	eb 05                	jmp    254f <submitr+0x79e>
    254a:	b8 ff ff ff ff       	mov    $0xffffffff,%eax
    254f:	8b 7d e4             	mov    -0x1c(%ebp),%edi
    2552:	65 33 3d 14 00 00 00 	xor    %gs:0x14,%edi
    2559:	74 05                	je     2560 <submitr+0x7af>
    255b:	e8 90 03 00 00       	call   28f0 <__stack_chk_fail_local>
    2560:	8d 65 f4             	lea    -0xc(%ebp),%esp
    2563:	5b                   	pop    %ebx
    2564:	5e                   	pop    %esi
    2565:	5f                   	pop    %edi
    2566:	5d                   	pop    %ebp
    2567:	c3                   	ret    

00002568 <init_timeout>:
    2568:	55                   	push   %ebp
    2569:	89 e5                	mov    %esp,%ebp
    256b:	53                   	push   %ebx
    256c:	83 ec 04             	sub    $0x4,%esp
    256f:	e8 dc e5 ff ff       	call   b50 <__x86.get_pc_thunk.bx>
    2574:	81 c3 e4 29 00 00    	add    $0x29e4,%ebx
    257a:	83 7d 08 00          	cmpl   $0x0,0x8(%ebp)
    257e:	74 32                	je     25b2 <init_timeout+0x4a>
    2580:	83 7d 08 00          	cmpl   $0x0,0x8(%ebp)
    2584:	79 07                	jns    258d <init_timeout+0x25>
    2586:	c7 45 08 00 00 00 00 	movl   $0x0,0x8(%ebp)
    258d:	83 ec 08             	sub    $0x8,%esp
    2590:	8d 83 79 ca ff ff    	lea    -0x3587(%ebx),%eax
    2596:	50                   	push   %eax
    2597:	6a 0e                	push   $0xe
    2599:	e8 e2 e3 ff ff       	call   980 <signal@plt>
    259e:	83 c4 10             	add    $0x10,%esp
    25a1:	8b 45 08             	mov    0x8(%ebp),%eax
    25a4:	83 ec 0c             	sub    $0xc,%esp
    25a7:	50                   	push   %eax
    25a8:	e8 f3 e3 ff ff       	call   9a0 <alarm@plt>
    25ad:	83 c4 10             	add    $0x10,%esp
    25b0:	eb 01                	jmp    25b3 <init_timeout+0x4b>
    25b2:	90                   	nop
    25b3:	8b 5d fc             	mov    -0x4(%ebp),%ebx
    25b6:	c9                   	leave  
    25b7:	c3                   	ret    

000025b8 <init_driver>:
    25b8:	55                   	push   %ebp
    25b9:	89 e5                	mov    %esp,%ebp
    25bb:	53                   	push   %ebx
    25bc:	83 ec 44             	sub    $0x44,%esp
    25bf:	e8 8c e5 ff ff       	call   b50 <__x86.get_pc_thunk.bx>
    25c4:	81 c3 94 29 00 00    	add    $0x2994,%ebx
    25ca:	8b 45 08             	mov    0x8(%ebp),%eax
    25cd:	89 45 c4             	mov    %eax,-0x3c(%ebp)
    25d0:	65 a1 14 00 00 00    	mov    %gs:0x14,%eax
    25d6:	89 45 f4             	mov    %eax,-0xc(%ebp)
    25d9:	31 c0                	xor    %eax,%eax
    25db:	8d 83 6b de ff ff    	lea    -0x2195(%ebx),%eax
    25e1:	89 45 d4             	mov    %eax,-0x2c(%ebp)
    25e4:	c7 45 d8 6e 3b 00 00 	movl   $0x3b6e,-0x28(%ebp)
    25eb:	83 ec 08             	sub    $0x8,%esp
    25ee:	6a 01                	push   $0x1
    25f0:	6a 0d                	push   $0xd
    25f2:	e8 89 e3 ff ff       	call   980 <signal@plt>
    25f7:	83 c4 10             	add    $0x10,%esp
    25fa:	83 ec 08             	sub    $0x8,%esp
    25fd:	6a 01                	push   $0x1
    25ff:	6a 1d                	push   $0x1d
    2601:	e8 7a e3 ff ff       	call   980 <signal@plt>
    2606:	83 c4 10             	add    $0x10,%esp
    2609:	83 ec 08             	sub    $0x8,%esp
    260c:	6a 01                	push   $0x1
    260e:	6a 1d                	push   $0x1d
    2610:	e8 6b e3 ff ff       	call   980 <signal@plt>
    2615:	83 c4 10             	add    $0x10,%esp
    2618:	83 ec 04             	sub    $0x4,%esp
    261b:	6a 00                	push   $0x0
    261d:	6a 01                	push   $0x1
    261f:	6a 02                	push   $0x2
    2621:	e8 8a e4 ff ff       	call   ab0 <socket@plt>
    2626:	83 c4 10             	add    $0x10,%esp
    2629:	89 45 dc             	mov    %eax,-0x24(%ebp)
    262c:	83 7d dc 00          	cmpl   $0x0,-0x24(%ebp)
    2630:	79 51                	jns    2683 <init_driver+0xcb>
    2632:	8b 45 c4             	mov    -0x3c(%ebp),%eax
    2635:	c7 00 45 72 72 6f    	movl   $0x6f727245,(%eax)
    263b:	c7 40 04 72 3a 20 43 	movl   $0x43203a72,0x4(%eax)
    2642:	c7 40 08 6c 69 65 6e 	movl   $0x6e65696c,0x8(%eax)
    2649:	c7 40 0c 74 20 75 6e 	movl   $0x6e752074,0xc(%eax)
    2650:	c7 40 10 61 62 6c 65 	movl   $0x656c6261,0x10(%eax)
    2657:	c7 40 14 20 74 6f 20 	movl   $0x206f7420,0x14(%eax)
    265e:	c7 40 18 63 72 65 61 	movl   $0x61657263,0x18(%eax)
    2665:	c7 40 1c 74 65 20 73 	movl   $0x73206574,0x1c(%eax)
    266c:	c7 40 20 6f 63 6b 65 	movl   $0x656b636f,0x20(%eax)
    2673:	66 c7 40 24 74 00    	movw   $0x74,0x24(%eax)
    2679:	b8 ff ff ff ff       	mov    $0xffffffff,%eax
    267e:	e9 3d 01 00 00       	jmp    27c0 <init_driver+0x208>
    2683:	83 ec 0c             	sub    $0xc,%esp
    2686:	ff 75 d4             	pushl  -0x2c(%ebp)
    2689:	e8 32 e4 ff ff       	call   ac0 <gethostbyname@plt>
    268e:	83 c4 10             	add    $0x10,%esp
    2691:	89 45 e0             	mov    %eax,-0x20(%ebp)
    2694:	83 7d e0 00          	cmpl   $0x0,-0x20(%ebp)
    2698:	75 71                	jne    270b <init_driver+0x153>
    269a:	8b 45 c4             	mov    -0x3c(%ebp),%eax
    269d:	c7 00 45 72 72 6f    	movl   $0x6f727245,(%eax)
    26a3:	c7 40 04 72 3a 20 44 	movl   $0x44203a72,0x4(%eax)
    26aa:	c7 40 08 4e 53 20 69 	movl   $0x6920534e,0x8(%eax)
    26b1:	c7 40 0c 73 20 75 6e 	movl   $0x6e752073,0xc(%eax)
    26b8:	c7 40 10 61 62 6c 65 	movl   $0x656c6261,0x10(%eax)
    26bf:	c7 40 14 20 74 6f 20 	movl   $0x206f7420,0x14(%eax)
    26c6:	c7 40 18 72 65 73 6f 	movl   $0x6f736572,0x18(%eax)
    26cd:	c7 40 1c 6c 76 65 20 	movl   $0x2065766c,0x1c(%eax)
    26d4:	c7 40 20 73 65 72 76 	movl   $0x76726573,0x20(%eax)
    26db:	c7 40 24 65 72 20 61 	movl   $0x61207265,0x24(%eax)
    26e2:	c7 40 28 64 64 72 65 	movl   $0x65726464,0x28(%eax)
    26e9:	66 c7 40 2c 73 73    	movw   $0x7373,0x2c(%eax)
    26ef:	c6 40 2e 00          	movb   $0x0,0x2e(%eax)
    26f3:	83 ec 0c             	sub    $0xc,%esp
    26f6:	ff 75 dc             	pushl  -0x24(%ebp)
    26f9:	e8 e2 e3 ff ff       	call   ae0 <close@plt>
    26fe:	83 c4 10             	add    $0x10,%esp
    2701:	b8 ff ff ff ff       	mov    $0xffffffff,%eax
    2706:	e9 b5 00 00 00       	jmp    27c0 <init_driver+0x208>
    270b:	83 ec 08             	sub    $0x8,%esp
    270e:	6a 10                	push   $0x10
    2710:	8d 45 e4             	lea    -0x1c(%ebp),%eax
    2713:	50                   	push   %eax
    2714:	e8 47 e2 ff ff       	call   960 <bzero@plt>
    2719:	83 c4 10             	add    $0x10,%esp
    271c:	66 c7 45 e4 02 00    	movw   $0x2,-0x1c(%ebp)
    2722:	8b 45 e0             	mov    -0x20(%ebp),%eax
    2725:	8b 40 0c             	mov    0xc(%eax),%eax
    2728:	89 c2                	mov    %eax,%edx
    272a:	8b 45 e0             	mov    -0x20(%ebp),%eax
    272d:	8b 40 10             	mov    0x10(%eax),%eax
    2730:	8b 00                	mov    (%eax),%eax
    2732:	83 ec 04             	sub    $0x4,%esp
    2735:	52                   	push   %edx
    2736:	8d 55 e4             	lea    -0x1c(%ebp),%edx
    2739:	83 c2 04             	add    $0x4,%edx
    273c:	52                   	push   %edx
    273d:	50                   	push   %eax
    273e:	e8 8d e2 ff ff       	call   9d0 <bcopy@plt>
    2743:	83 c4 10             	add    $0x10,%esp
    2746:	8b 45 d8             	mov    -0x28(%ebp),%eax
    2749:	0f b7 c0             	movzwl %ax,%eax
    274c:	83 ec 0c             	sub    $0xc,%esp
    274f:	50                   	push   %eax
    2750:	e8 6b e2 ff ff       	call   9c0 <htons@plt>
    2755:	83 c4 10             	add    $0x10,%esp
    2758:	66 89 45 e6          	mov    %ax,-0x1a(%ebp)
    275c:	83 ec 04             	sub    $0x4,%esp
    275f:	6a 10                	push   $0x10
    2761:	8d 45 e4             	lea    -0x1c(%ebp),%eax
    2764:	50                   	push   %eax
    2765:	ff 75 dc             	pushl  -0x24(%ebp)
    2768:	e8 63 e3 ff ff       	call   ad0 <connect@plt>
    276d:	83 c4 10             	add    $0x10,%esp
    2770:	85 c0                	test   %eax,%eax
    2772:	79 2d                	jns    27a1 <init_driver+0x1e9>
    2774:	83 ec 04             	sub    $0x4,%esp
    2777:	ff 75 d4             	pushl  -0x2c(%ebp)
    277a:	8d 83 78 de ff ff    	lea    -0x2188(%ebx),%eax
    2780:	50                   	push   %eax
    2781:	ff 75 c4             	pushl  -0x3c(%ebp)
    2784:	e8 07 e3 ff ff       	call   a90 <sprintf@plt>
    2789:	83 c4 10             	add    $0x10,%esp
    278c:	83 ec 0c             	sub    $0xc,%esp
    278f:	ff 75 dc             	pushl  -0x24(%ebp)
    2792:	e8 49 e3 ff ff       	call   ae0 <close@plt>
    2797:	83 c4 10             	add    $0x10,%esp
    279a:	b8 ff ff ff ff       	mov    $0xffffffff,%eax
    279f:	eb 1f                	jmp    27c0 <init_driver+0x208>
    27a1:	83 ec 0c             	sub    $0xc,%esp
    27a4:	ff 75 dc             	pushl  -0x24(%ebp)
    27a7:	e8 34 e3 ff ff       	call   ae0 <close@plt>
    27ac:	83 c4 10             	add    $0x10,%esp
    27af:	8b 45 c4             	mov    -0x3c(%ebp),%eax
    27b2:	66 c7 00 4f 4b       	movw   $0x4b4f,(%eax)
    27b7:	c6 40 02 00          	movb   $0x0,0x2(%eax)
    27bb:	b8 00 00 00 00       	mov    $0x0,%eax
    27c0:	8b 4d f4             	mov    -0xc(%ebp),%ecx
    27c3:	65 33 0d 14 00 00 00 	xor    %gs:0x14,%ecx
    27ca:	74 05                	je     27d1 <init_driver+0x219>
    27cc:	e8 1f 01 00 00       	call   28f0 <__stack_chk_fail_local>
    27d1:	8b 5d fc             	mov    -0x4(%ebp),%ebx
    27d4:	c9                   	leave  
    27d5:	c3                   	ret    

000027d6 <driver_post>:
    27d6:	55                   	push   %ebp
    27d7:	89 e5                	mov    %esp,%ebp
    27d9:	53                   	push   %ebx
    27da:	83 ec 14             	sub    $0x14,%esp
    27dd:	e8 ab ec ff ff       	call   148d <__x86.get_pc_thunk.ax>
    27e2:	05 76 27 00 00       	add    $0x2776,%eax
    27e7:	83 7d 14 00          	cmpl   $0x0,0x14(%ebp)
    27eb:	74 2a                	je     2817 <driver_post+0x41>
    27ed:	83 ec 08             	sub    $0x8,%esp
    27f0:	ff 75 10             	pushl  0x10(%ebp)
    27f3:	8d 90 9e de ff ff    	lea    -0x2162(%eax),%edx
    27f9:	52                   	push   %edx
    27fa:	89 c3                	mov    %eax,%ebx
    27fc:	e8 2f e1 ff ff       	call   930 <printf@plt>
    2801:	83 c4 10             	add    $0x10,%esp
    2804:	8b 45 18             	mov    0x18(%ebp),%eax
    2807:	66 c7 00 4f 4b       	movw   $0x4b4f,(%eax)
    280c:	c6 40 02 00          	movb   $0x0,0x2(%eax)
    2810:	b8 00 00 00 00       	mov    $0x0,%eax
    2815:	eb 5a                	jmp    2871 <driver_post+0x9b>
    2817:	83 7d 08 00          	cmpl   $0x0,0x8(%ebp)
    281b:	74 43                	je     2860 <driver_post+0x8a>
    281d:	8b 55 08             	mov    0x8(%ebp),%edx
    2820:	0f b6 12             	movzbl (%edx),%edx
    2823:	0f b6 d2             	movzbl %dl,%edx
    2826:	85 d2                	test   %edx,%edx
    2828:	74 36                	je     2860 <driver_post+0x8a>
    282a:	ff 75 18             	pushl  0x18(%ebp)
    282d:	ff 75 10             	pushl  0x10(%ebp)
    2830:	8d 90 b5 de ff ff    	lea    -0x214b(%eax),%edx
    2836:	52                   	push   %edx
    2837:	ff 75 0c             	pushl  0xc(%ebp)
    283a:	ff 75 08             	pushl  0x8(%ebp)
    283d:	8d 90 bd de ff ff    	lea    -0x2143(%eax),%edx
    2843:	52                   	push   %edx
    2844:	68 6e 3b 00 00       	push   $0x3b6e
    2849:	8d 80 6b de ff ff    	lea    -0x2195(%eax),%eax
    284f:	50                   	push   %eax
    2850:	e8 5c f5 ff ff       	call   1db1 <submitr>
    2855:	83 c4 20             	add    $0x20,%esp
    2858:	89 45 f4             	mov    %eax,-0xc(%ebp)
    285b:	8b 45 f4             	mov    -0xc(%ebp),%eax
    285e:	eb 11                	jmp    2871 <driver_post+0x9b>
    2860:	8b 45 18             	mov    0x18(%ebp),%eax
    2863:	66 c7 00 4f 4b       	movw   $0x4b4f,(%eax)
    2868:	c6 40 02 00          	movb   $0x0,0x2(%eax)
    286c:	b8 00 00 00 00       	mov    $0x0,%eax
    2871:	8b 5d fc             	mov    -0x4(%ebp),%ebx
    2874:	c9                   	leave  
    2875:	c3                   	ret    
    2876:	66 90                	xchg   %ax,%ax
    2878:	66 90                	xchg   %ax,%ax
    287a:	66 90                	xchg   %ax,%ax
    287c:	66 90                	xchg   %ax,%ax
    287e:	66 90                	xchg   %ax,%ax

00002880 <__libc_csu_init>:
    2880:	55                   	push   %ebp
    2881:	57                   	push   %edi
    2882:	56                   	push   %esi
    2883:	53                   	push   %ebx
    2884:	e8 c7 e2 ff ff       	call   b50 <__x86.get_pc_thunk.bx>
    2889:	81 c3 cf 26 00 00    	add    $0x26cf,%ebx
    288f:	83 ec 0c             	sub    $0xc,%esp
    2892:	8b 6c 24 28          	mov    0x28(%esp),%ebp
    2896:	8d b3 04 ff ff ff    	lea    -0xfc(%ebx),%esi
    289c:	e8 2f e0 ff ff       	call   8d0 <_init>
    28a1:	8d 83 00 ff ff ff    	lea    -0x100(%ebx),%eax
    28a7:	29 c6                	sub    %eax,%esi
    28a9:	c1 fe 02             	sar    $0x2,%esi
    28ac:	85 f6                	test   %esi,%esi
    28ae:	74 25                	je     28d5 <__libc_csu_init+0x55>
    28b0:	31 ff                	xor    %edi,%edi
    28b2:	8d b6 00 00 00 00    	lea    0x0(%esi),%esi
    28b8:	83 ec 04             	sub    $0x4,%esp
    28bb:	55                   	push   %ebp
    28bc:	ff 74 24 2c          	pushl  0x2c(%esp)
    28c0:	ff 74 24 2c          	pushl  0x2c(%esp)
    28c4:	ff 94 bb 00 ff ff ff 	call   *-0x100(%ebx,%edi,4)
    28cb:	83 c7 01             	add    $0x1,%edi
    28ce:	83 c4 10             	add    $0x10,%esp
    28d1:	39 fe                	cmp    %edi,%esi
    28d3:	75 e3                	jne    28b8 <__libc_csu_init+0x38>
    28d5:	83 c4 0c             	add    $0xc,%esp
    28d8:	5b                   	pop    %ebx
    28d9:	5e                   	pop    %esi
    28da:	5f                   	pop    %edi
    28db:	5d                   	pop    %ebp
    28dc:	c3                   	ret    
    28dd:	8d 76 00             	lea    0x0(%esi),%esi

000028e0 <__libc_csu_fini>:
    28e0:	f3 c3                	repz ret 
    28e2:	66 90                	xchg   %ax,%ax
    28e4:	66 90                	xchg   %ax,%ax
    28e6:	66 90                	xchg   %ax,%ax
    28e8:	66 90                	xchg   %ax,%ax
    28ea:	66 90                	xchg   %ax,%ax
    28ec:	66 90                	xchg   %ax,%ax
    28ee:	66 90                	xchg   %ax,%ax

000028f0 <__stack_chk_fail_local>:
    28f0:	53                   	push   %ebx
    28f1:	e8 5a e2 ff ff       	call   b50 <__x86.get_pc_thunk.bx>
    28f6:	81 c3 62 26 00 00    	add    $0x2662,%ebx
    28fc:	83 ec 08             	sub    $0x8,%esp
    28ff:	e8 ac e0 ff ff       	call   9b0 <__stack_chk_fail@plt>

Disassembly of section .fini:

00002904 <_fini>:
    2904:	53                   	push   %ebx
    2905:	83 ec 08             	sub    $0x8,%esp
    2908:	e8 43 e2 ff ff       	call   b50 <__x86.get_pc_thunk.bx>
    290d:	81 c3 4b 26 00 00    	add    $0x264b,%ebx
    2913:	83 c4 08             	add    $0x8,%esp
    2916:	5b                   	pop    %ebx
    2917:	c3                   	ret    
